	.section	__TEXT,__text,regular,pure_instructions
	.macosx_version_min 10, 12
	.file	1 "/Applications/Xcode.app/Contents/Developer/Toolchains/XcodeDefault.xctoolchain/usr/bin/../include/c++/v1" "__config"
	.file	2 "/Applications/Xcode.app/Contents/Developer/Toolchains/XcodeDefault.xctoolchain/usr/bin/../include/c++/v1" "ios"
	.file	3 "/Applications/Xcode.app/Contents/Developer/Toolchains/XcodeDefault.xctoolchain/usr/bin/../lib/clang/8.0.0/include" "stddef.h"
	.file	4 "/usr/include/i386" "_types.h"
	.file	5 "/usr/include/sys/_types" "_size_t.h"
	.file	6 "/Applications/Xcode.app/Contents/Developer/Toolchains/XcodeDefault.xctoolchain/usr/bin/../include/c++/v1" "__locale"
	.file	7 "/Applications/Xcode.app/Contents/Developer/Toolchains/XcodeDefault.xctoolchain/usr/bin/../include/c++/v1" "string"
	.file	8 "/Applications/Xcode.app/Contents/Developer/Toolchains/XcodeDefault.xctoolchain/usr/bin/../include/c++/v1" "memory"
	.file	9 "/Applications/Xcode.app/Contents/Developer/Toolchains/XcodeDefault.xctoolchain/usr/bin/../include/c++/v1" "type_traits"
	.file	10 "/Applications/Xcode.app/Contents/Developer/Toolchains/XcodeDefault.xctoolchain/usr/bin/../include/c++/v1" "initializer_list"
	.file	11 "/Applications/Xcode.app/Contents/Developer/Toolchains/XcodeDefault.xctoolchain/usr/bin/../include/c++/v1" "iosfwd"
	.file	12 "/Applications/Xcode.app/Contents/Developer/Toolchains/XcodeDefault.xctoolchain/usr/bin/../include/c++/v1" "mutex"
	.file	13 "/usr/include/sys/_types" "_int32_t.h"
	.file	14 "/Applications/Xcode.app/Contents/Developer/Toolchains/XcodeDefault.xctoolchain/usr/bin/../include/c++/v1" "iterator"
	.file	15 "/Applications/Xcode.app/Contents/Developer/Toolchains/XcodeDefault.xctoolchain/usr/bin/../include/c++/v1" "streambuf"
	.file	16 "/Applications/Xcode.app/Contents/Developer/Toolchains/XcodeDefault.xctoolchain/usr/bin/../include/c++/v1" "ostream"
	.file	17 "/usr/include" "string.h"
	.file	18 "/usr/include" "stdio.h"
	.file	19 "/usr/include/sys" "_types.h"
	.file	20 "/usr/include" "ctype.h"
	.file	21 "/usr/include/sys/_types" "_wint_t.h"
	.file	22 "/usr/include" "_types.h"
	.file	23 "/usr/include/_types" "_wctrans_t.h"
	.file	24 "/usr/include/_types" "_wctype_t.h"
	.file	25 "/usr/include" "_wctype.h"
	.file	26 "/usr/include" "wctype.h"
	.file	27 "/usr/include/sys/_types" "_mbstate_t.h"
	.file	28 "/usr/include" "time.h"
	.file	29 "/usr/include" "wchar.h"
	.file	30 "/Applications/Xcode.app/Contents/Developer/Toolchains/XcodeDefault.xctoolchain/usr/bin/../lib/clang/8.0.0/include" "__stddef_max_align_t.h"
	.file	31 "/usr/include/sys/_types" "_int8_t.h"
	.file	32 "/usr/include/sys/_types" "_int16_t.h"
	.file	33 "/usr/include/sys/_types" "_int64_t.h"
	.file	34 "/usr/include/_types" "_uint8_t.h"
	.file	35 "/usr/include/_types" "_uint16_t.h"
	.file	36 "/usr/include/_types" "_uint32_t.h"
	.file	37 "/usr/include/_types" "_uint64_t.h"
	.file	38 "/usr/include" "stdint.h"
	.file	39 "/usr/include/sys/_types" "_intptr_t.h"
	.file	40 "/usr/include/sys/_types" "_uintptr_t.h"
	.file	41 "/usr/include/_types" "_intmax_t.h"
	.file	42 "/usr/include/_types" "_uintmax_t.h"
	.file	43 "/usr/include/sys/_types" "_clock_t.h"
	.file	44 "/usr/include/sys/_types" "_time_t.h"
	.file	45 "/usr/include" "stdlib.h"
	.section	__TEXT,__literal8,8byte_literals
	.align	3
LCPI0_0:
	.quad	4607182418800017408     ## double 1
LCPI0_1:
	.quad	4611686018427387904     ## double 2
LCPI0_2:
	.quad	4613937818241073152     ## double 3
	.section	__TEXT,__text,regular,pure_instructions
	.globl	_main
	.align	4, 0x90
_main:                                  ## @main
Lfunc_begin0:
	.file	46 "main.cpp"
	.loc	46 4 0                  ## main.cpp:4:0
	.cfi_startproc
## BB#0:
	pushq	%rbp
Ltmp0:
	.cfi_def_cfa_offset 16
Ltmp1:
	.cfi_offset %rbp, -16
	movq	%rsp, %rbp
Ltmp2:
	.cfi_def_cfa_register %rbp
	subq	$80, %rsp
	movq	__ZNSt3__14coutE@GOTPCREL(%rip), %rdi
	leaq	L_.str(%rip), %rsi
	movl	$0, -36(%rbp)
	.loc	46 6 13 prologue_end    ## main.cpp:6:13
Ltmp3:
	callq	__ZNSt3__1lsINS_11char_traitsIcEEEERNS_13basic_ostreamIcT_EES6_PKc
	leaq	__ZNSt3__15flushIcNS_11char_traitsIcEEEERNS_13basic_ostreamIT_T0_EES7_(%rip), %rsi
	.loc	46 6 23 is_stmt 0       ## main.cpp:6:23
	movq	%rax, -24(%rbp)
	movq	%rsi, -32(%rbp)
	movq	-24(%rbp), %rdi
	.loc	16 322 12 is_stmt 1     ## /Applications/Xcode.app/Contents/Developer/Toolchains/XcodeDefault.xctoolchain/usr/bin/../include/c++/v1/ostream:322:12
Ltmp4:
	callq	*-32(%rbp)
	movq	__ZNSt3__13cinE@GOTPCREL(%rip), %rdi
	leaq	-48(%rbp), %rsi
Ltmp5:
	.loc	46 7 12                 ## main.cpp:7:12
	movq	%rax, -56(%rbp)         ## 8-byte Spill
	callq	__ZNSt3__113basic_istreamIcNS_11char_traitsIcEEErsERd
	movq	%rax, -64(%rbp)         ## 8-byte Spill
LBB0_1:                                 ## =>This Inner Loop Header: Depth=1
	movsd	LCPI0_0(%rip), %xmm0    ## xmm0 = mem[0],zero
	.loc	46 9 9                  ## main.cpp:9:9
	movsd	-48(%rbp), %xmm1        ## xmm1 = mem[0],zero
	.loc	46 9 16 is_stmt 0       ## main.cpp:9:16
	ucomisd	%xmm0, %xmm1
	.loc	46 9 3                  ## main.cpp:9:3
	jne	LBB0_2
	jp	LBB0_2
	jmp	LBB0_6
LBB0_2:                                 ##   in Loop: Header=BB0_1 Depth=1
	movsd	LCPI0_1(%rip), %xmm1    ## xmm1 = mem[0],zero
	.loc	46 10 14 is_stmt 1      ## main.cpp:10:14
Ltmp6:
	movsd	-48(%rbp), %xmm0        ## xmm0 = mem[0],zero
	.loc	46 10 9 is_stmt 0       ## main.cpp:10:9
	callq	_fmod
	xorps	%xmm1, %xmm1
	.loc	46 10 24                ## main.cpp:10:24
	ucomisd	%xmm1, %xmm0
Ltmp7:
	.loc	46 10 9                 ## main.cpp:10:9
	jne	LBB0_4
	jp	LBB0_4
## BB#3:                                ##   in Loop: Header=BB0_1 Depth=1
	movsd	LCPI0_1(%rip), %xmm0    ## xmm0 = mem[0],zero
	.loc	46 11 14 is_stmt 1      ## main.cpp:11:14
Ltmp8:
	movsd	-48(%rbp), %xmm1        ## xmm1 = mem[0],zero
	divsd	%xmm0, %xmm1
	movsd	%xmm1, -48(%rbp)
	.loc	46 12 5                 ## main.cpp:12:5
	jmp	LBB0_5
Ltmp9:
LBB0_4:                                 ##   in Loop: Header=BB0_1 Depth=1
	movsd	LCPI0_0(%rip), %xmm0    ## xmm0 = mem[0],zero
	movsd	LCPI0_2(%rip), %xmm1    ## xmm1 = mem[0],zero
	.loc	46 13 24                ## main.cpp:13:24
Ltmp10:
	mulsd	-48(%rbp), %xmm1
	.loc	46 13 29 is_stmt 0      ## main.cpp:13:29
	addsd	%xmm0, %xmm1
	.loc	46 13 14                ## main.cpp:13:14
	movsd	%xmm1, -48(%rbp)
Ltmp11:
LBB0_5:                                 ##   in Loop: Header=BB0_1 Depth=1
	movq	__ZNSt3__14coutE@GOTPCREL(%rip), %rdi
	.loc	46 15 18 is_stmt 1      ## main.cpp:15:18
	movsd	-48(%rbp), %xmm0        ## xmm0 = mem[0],zero
	.loc	46 15 15 is_stmt 0      ## main.cpp:15:15
	callq	__ZNSt3__113basic_ostreamIcNS_11char_traitsIcEEElsEd
	leaq	__ZNSt3__14endlIcNS_11char_traitsIcEEEERNS_13basic_ostreamIT_T0_EES7_(%rip), %rdi
	.loc	46 15 25                ## main.cpp:15:25
	movq	%rax, -8(%rbp)
	movq	%rdi, -16(%rbp)
	movq	-8(%rbp), %rdi
	.loc	16 322 12 is_stmt 1     ## /Applications/Xcode.app/Contents/Developer/Toolchains/XcodeDefault.xctoolchain/usr/bin/../include/c++/v1/ostream:322:12
Ltmp12:
	callq	*-16(%rbp)
Ltmp13:
	.loc	46 9 3                  ## main.cpp:9:3
	movq	%rax, -72(%rbp)         ## 8-byte Spill
	jmp	LBB0_1
LBB0_6:
	xorl	%eax, %eax
	.loc	46 17 3                 ## main.cpp:17:3
	addq	$80, %rsp
	popq	%rbp
	retq
Ltmp14:
Lfunc_end0:
	.cfi_endproc

	.globl	__ZNSt3__1lsINS_11char_traitsIcEEEERNS_13basic_ostreamIcT_EES6_PKc
	.weak_def_can_be_hidden	__ZNSt3__1lsINS_11char_traitsIcEEEERNS_13basic_ostreamIcT_EES6_PKc
	.align	4, 0x90
__ZNSt3__1lsINS_11char_traitsIcEEEERNS_13basic_ostreamIcT_EES6_PKc: ## @_ZNSt3__1lsINS_11char_traitsIcEEEERNS_13basic_ostreamIcT_EES6_PKc
Lfunc_begin1:
	.loc	16 893 0                ## /Applications/Xcode.app/Contents/Developer/Toolchains/XcodeDefault.xctoolchain/usr/bin/../include/c++/v1/ostream:893:0
	.cfi_startproc
## BB#0:
	pushq	%rbp
Ltmp15:
	.cfi_def_cfa_offset 16
Ltmp16:
	.cfi_offset %rbp, -16
	movq	%rsp, %rbp
Ltmp17:
	.cfi_def_cfa_register %rbp
	subq	$32, %rsp
	movq	%rdi, -8(%rbp)
	movq	%rsi, -16(%rbp)
	.loc	16 894 44 prologue_end  ## /Applications/Xcode.app/Contents/Developer/Toolchains/XcodeDefault.xctoolchain/usr/bin/../include/c++/v1/ostream:894:44
Ltmp18:
	movq	-8(%rbp), %rdi
	.loc	16 894 50 is_stmt 0     ## /Applications/Xcode.app/Contents/Developer/Toolchains/XcodeDefault.xctoolchain/usr/bin/../include/c++/v1/ostream:894:50
	movq	-16(%rbp), %rsi
	.loc	16 894 73               ## /Applications/Xcode.app/Contents/Developer/Toolchains/XcodeDefault.xctoolchain/usr/bin/../include/c++/v1/ostream:894:73
	movq	-16(%rbp), %rax
	.loc	16 894 57               ## /Applications/Xcode.app/Contents/Developer/Toolchains/XcodeDefault.xctoolchain/usr/bin/../include/c++/v1/ostream:894:57
	movq	%rdi, -24(%rbp)         ## 8-byte Spill
	movq	%rax, %rdi
	movq	%rsi, -32(%rbp)         ## 8-byte Spill
	callq	__ZNSt3__111char_traitsIcE6lengthEPKc
	.loc	16 894 12               ## /Applications/Xcode.app/Contents/Developer/Toolchains/XcodeDefault.xctoolchain/usr/bin/../include/c++/v1/ostream:894:12
	movq	-24(%rbp), %rdi         ## 8-byte Reload
	movq	-32(%rbp), %rsi         ## 8-byte Reload
	movq	%rax, %rdx
	callq	__ZNSt3__124__put_character_sequenceIcNS_11char_traitsIcEEEERNS_13basic_ostreamIT_T0_EES7_PKS4_m
	.loc	16 894 5                ## /Applications/Xcode.app/Contents/Developer/Toolchains/XcodeDefault.xctoolchain/usr/bin/../include/c++/v1/ostream:894:5
	addq	$32, %rsp
	popq	%rbp
	retq
Ltmp19:
Lfunc_end1:
	.cfi_endproc

	.private_extern	__ZNSt3__15flushIcNS_11char_traitsIcEEEERNS_13basic_ostreamIT_T0_EES7_
	.globl	__ZNSt3__15flushIcNS_11char_traitsIcEEEERNS_13basic_ostreamIT_T0_EES7_
	.weak_definition	__ZNSt3__15flushIcNS_11char_traitsIcEEEERNS_13basic_ostreamIT_T0_EES7_
	.align	4, 0x90
__ZNSt3__15flushIcNS_11char_traitsIcEEEERNS_13basic_ostreamIT_T0_EES7_: ## @_ZNSt3__15flushIcNS_11char_traitsIcEEEERNS_13basic_ostreamIT_T0_EES7_
Lfunc_begin2:
	.loc	16 1052 0 is_stmt 1     ## /Applications/Xcode.app/Contents/Developer/Toolchains/XcodeDefault.xctoolchain/usr/bin/../include/c++/v1/ostream:1052:0
	.cfi_startproc
## BB#0:
	pushq	%rbp
Ltmp20:
	.cfi_def_cfa_offset 16
Ltmp21:
	.cfi_offset %rbp, -16
	movq	%rsp, %rbp
Ltmp22:
	.cfi_def_cfa_register %rbp
	subq	$16, %rsp
	movq	%rdi, -8(%rbp)
	.loc	16 1053 5 prologue_end  ## /Applications/Xcode.app/Contents/Developer/Toolchains/XcodeDefault.xctoolchain/usr/bin/../include/c++/v1/ostream:1053:5
Ltmp23:
	movq	-8(%rbp), %rdi
	callq	__ZNSt3__113basic_ostreamIcNS_11char_traitsIcEEE5flushEv
	.loc	16 1054 12              ## /Applications/Xcode.app/Contents/Developer/Toolchains/XcodeDefault.xctoolchain/usr/bin/../include/c++/v1/ostream:1054:12
	movq	-8(%rbp), %rdi
	.loc	16 1054 5 is_stmt 0     ## /Applications/Xcode.app/Contents/Developer/Toolchains/XcodeDefault.xctoolchain/usr/bin/../include/c++/v1/ostream:1054:5
	movq	%rax, -16(%rbp)         ## 8-byte Spill
	movq	%rdi, %rax
	addq	$16, %rsp
	popq	%rbp
	retq
Ltmp24:
Lfunc_end2:
	.cfi_endproc

	.private_extern	__ZNSt3__14endlIcNS_11char_traitsIcEEEERNS_13basic_ostreamIT_T0_EES7_
	.globl	__ZNSt3__14endlIcNS_11char_traitsIcEEEERNS_13basic_ostreamIT_T0_EES7_
	.weak_definition	__ZNSt3__14endlIcNS_11char_traitsIcEEEERNS_13basic_ostreamIT_T0_EES7_
	.align	4, 0x90
__ZNSt3__14endlIcNS_11char_traitsIcEEEERNS_13basic_ostreamIT_T0_EES7_: ## @_ZNSt3__14endlIcNS_11char_traitsIcEEEERNS_13basic_ostreamIT_T0_EES7_
Lfunc_begin3:
	.loc	16 1033 0 is_stmt 1     ## /Applications/Xcode.app/Contents/Developer/Toolchains/XcodeDefault.xctoolchain/usr/bin/../include/c++/v1/ostream:1033:0
	.cfi_startproc
	.cfi_personality 155, ___gxx_personality_v0
	.cfi_lsda 16, Lexception0
## BB#0:
	pushq	%rbp
Ltmp30:
	.cfi_def_cfa_offset 16
Ltmp31:
	.cfi_offset %rbp, -16
	movq	%rsp, %rbp
Ltmp32:
	.cfi_def_cfa_register %rbp
	subq	$144, %rsp
	##DEBUG_VALUE: endl<char, std::__1::char_traits<char> >:__os <- [%RBP+-72]
	movq	%rdi, -72(%rbp)
	.loc	16 1034 5 prologue_end  ## /Applications/Xcode.app/Contents/Developer/Toolchains/XcodeDefault.xctoolchain/usr/bin/../include/c++/v1/ostream:1034:5
Ltmp33:
	movq	%rdi, %rax
	.loc	16 1034 14 is_stmt 0    ## /Applications/Xcode.app/Contents/Developer/Toolchains/XcodeDefault.xctoolchain/usr/bin/../include/c++/v1/ostream:1034:14
	movq	(%rdi), %rcx
	movq	-24(%rcx), %rcx
	addq	%rcx, %rdi
	movq	%rdi, -32(%rbp)
	movb	$10, -33(%rbp)
	movq	-32(%rbp), %rsi
	leaq	-48(%rbp), %rcx
	.loc	2 734 41 is_stmt 1      ## /Applications/Xcode.app/Contents/Developer/Toolchains/XcodeDefault.xctoolchain/usr/bin/../include/c++/v1/ios:734:41
Ltmp34:
	movq	%rcx, %rdi
	movq	%rax, -80(%rbp)         ## 8-byte Spill
	movq	%rcx, -88(%rbp)         ## 8-byte Spill
	callq	__ZNKSt3__18ios_base6getlocEv
	.loc	2 734 12 is_stmt 0      ## /Applications/Xcode.app/Contents/Developer/Toolchains/XcodeDefault.xctoolchain/usr/bin/../include/c++/v1/ios:734:12
	movq	-88(%rbp), %rax         ## 8-byte Reload
	movq	%rax, -24(%rbp)
	.loc	6 187 40 is_stmt 1      ## /Applications/Xcode.app/Contents/Developer/Toolchains/XcodeDefault.xctoolchain/usr/bin/../include/c++/v1/__locale:187:40
Ltmp35:
Ltmp25:
	movq	__ZNSt3__15ctypeIcE2idE@GOTPCREL(%rip), %rsi
	movq	%rax, %rdi
	callq	__ZNKSt3__16locale9use_facetERNS0_2idE
Ltmp26:
	movq	%rax, -96(%rbp)         ## 8-byte Spill
	jmp	LBB3_1
Ltmp36:
LBB3_1:
	##DEBUG_VALUE: endl<char, std::__1::char_traits<char> >:__os <- [%RBP+-72]
	.loc	2 734 57                ## /Applications/Xcode.app/Contents/Developer/Toolchains/XcodeDefault.xctoolchain/usr/bin/../include/c++/v1/ios:734:57
	movb	-33(%rbp), %al
	.loc	2 734 12 is_stmt 0      ## /Applications/Xcode.app/Contents/Developer/Toolchains/XcodeDefault.xctoolchain/usr/bin/../include/c++/v1/ios:734:12
	movq	-96(%rbp), %rcx         ## 8-byte Reload
	movq	%rcx, -8(%rbp)
	movb	%al, -9(%rbp)
	movq	-8(%rbp), %rdx
	.loc	6 603 16 is_stmt 1      ## /Applications/Xcode.app/Contents/Developer/Toolchains/XcodeDefault.xctoolchain/usr/bin/../include/c++/v1/__locale:603:16
Ltmp37:
	movq	(%rdx), %rsi
	movq	56(%rsi), %rsi
	movsbl	-9(%rbp), %edi
Ltmp27:
	movl	%edi, -100(%rbp)        ## 4-byte Spill
	movq	%rdx, %rdi
	movl	-100(%rbp), %r8d        ## 4-byte Reload
	movq	%rsi, -112(%rbp)        ## 8-byte Spill
	movl	%r8d, %esi
	movq	-112(%rbp), %rdx        ## 8-byte Reload
	callq	*%rdx
Ltmp28:
	movb	%al, -113(%rbp)         ## 1-byte Spill
	jmp	LBB3_3
Ltmp38:
LBB3_2:
	##DEBUG_VALUE: endl<char, std::__1::char_traits<char> >:__os <- [%RBP+-72]
Ltmp29:
	leaq	-48(%rbp), %rdi
	.loc	2 735 1                 ## /Applications/Xcode.app/Contents/Developer/Toolchains/XcodeDefault.xctoolchain/usr/bin/../include/c++/v1/ios:735:1
	movl	%edx, %ecx
	movq	%rax, -56(%rbp)
	movl	%ecx, -60(%rbp)
	.loc	2 734 5                 ## /Applications/Xcode.app/Contents/Developer/Toolchains/XcodeDefault.xctoolchain/usr/bin/../include/c++/v1/ios:734:5
	callq	__ZNSt3__16localeD1Ev
	movq	-56(%rbp), %rdi
	callq	__Unwind_Resume
LBB3_3:
	##DEBUG_VALUE: endl<char, std::__1::char_traits<char> >:__os <- [%RBP+-72]
	leaq	-48(%rbp), %rdi
	callq	__ZNSt3__16localeD1Ev
Ltmp39:
	.loc	16 1034 5               ## /Applications/Xcode.app/Contents/Developer/Toolchains/XcodeDefault.xctoolchain/usr/bin/../include/c++/v1/ostream:1034:5
	movq	-80(%rbp), %rdi         ## 8-byte Reload
	movb	-113(%rbp), %al         ## 1-byte Reload
	movsbl	%al, %esi
	callq	__ZNSt3__113basic_ostreamIcNS_11char_traitsIcEEE3putEc
	.loc	16 1035 5               ## /Applications/Xcode.app/Contents/Developer/Toolchains/XcodeDefault.xctoolchain/usr/bin/../include/c++/v1/ostream:1035:5
	movq	-72(%rbp), %rdi
	movq	%rax, -128(%rbp)        ## 8-byte Spill
	callq	__ZNSt3__113basic_ostreamIcNS_11char_traitsIcEEE5flushEv
	.loc	16 1036 12              ## /Applications/Xcode.app/Contents/Developer/Toolchains/XcodeDefault.xctoolchain/usr/bin/../include/c++/v1/ostream:1036:12
	movq	-72(%rbp), %rdi
	.loc	16 1036 5 is_stmt 0     ## /Applications/Xcode.app/Contents/Developer/Toolchains/XcodeDefault.xctoolchain/usr/bin/../include/c++/v1/ostream:1036:5
	movq	%rax, -136(%rbp)        ## 8-byte Spill
	movq	%rdi, %rax
	addq	$144, %rsp
	popq	%rbp
	retq
Ltmp40:
Lfunc_end3:
	.cfi_endproc
	.section	__TEXT,__gcc_except_tab
	.align	2
GCC_except_table3:
Lexception0:
	.byte	255                     ## @LPStart Encoding = omit
	.byte	155                     ## @TType Encoding = indirect pcrel sdata4
	.byte	41                      ## @TType base offset
	.byte	3                       ## Call site Encoding = udata4
	.byte	39                      ## Call site table length
Lset0 = Lfunc_begin3-Lfunc_begin3       ## >> Call Site 1 <<
	.long	Lset0
Lset1 = Ltmp25-Lfunc_begin3             ##   Call between Lfunc_begin3 and Ltmp25
	.long	Lset1
	.long	0                       ##     has no landing pad
	.byte	0                       ##   On action: cleanup
Lset2 = Ltmp25-Lfunc_begin3             ## >> Call Site 2 <<
	.long	Lset2
Lset3 = Ltmp28-Ltmp25                   ##   Call between Ltmp25 and Ltmp28
	.long	Lset3
Lset4 = Ltmp29-Lfunc_begin3             ##     jumps to Ltmp29
	.long	Lset4
	.byte	0                       ##   On action: cleanup
Lset5 = Ltmp28-Lfunc_begin3             ## >> Call Site 3 <<
	.long	Lset5
Lset6 = Lfunc_end3-Ltmp28               ##   Call between Ltmp28 and Lfunc_end3
	.long	Lset6
	.long	0                       ##     has no landing pad
	.byte	0                       ##   On action: cleanup
	.align	2

	.section	__TEXT,__text,regular,pure_instructions
	.globl	__ZNSt3__124__put_character_sequenceIcNS_11char_traitsIcEEEERNS_13basic_ostreamIT_T0_EES7_PKS4_m
	.weak_def_can_be_hidden	__ZNSt3__124__put_character_sequenceIcNS_11char_traitsIcEEEERNS_13basic_ostreamIT_T0_EES7_PKS4_m
	.align	4, 0x90
__ZNSt3__124__put_character_sequenceIcNS_11char_traitsIcEEEERNS_13basic_ostreamIT_T0_EES7_PKS4_m: ## @_ZNSt3__124__put_character_sequenceIcNS_11char_traitsIcEEEERNS_13basic_ostreamIT_T0_EES7_PKS4_m
Lfunc_begin4:
	.loc	16 746 0 is_stmt 1      ## /Applications/Xcode.app/Contents/Developer/Toolchains/XcodeDefault.xctoolchain/usr/bin/../include/c++/v1/ostream:746:0
	.cfi_startproc
	.cfi_personality 155, ___gxx_personality_v0
	.cfi_lsda 16, Lexception1
## BB#0:
	pushq	%rbp
Ltmp62:
	.cfi_def_cfa_offset 16
Ltmp63:
	.cfi_offset %rbp, -16
	movq	%rsp, %rbp
Ltmp64:
	.cfi_def_cfa_register %rbp
	subq	$384, %rsp              ## imm = 0x180
	##DEBUG_VALUE: __put_character_sequence<char, std::__1::char_traits<char> >:__os <- [%RBP+-184]
	##DEBUG_VALUE: __put_character_sequence<char, std::__1::char_traits<char> >:__str <- [%RBP+-192]
	##DEBUG_VALUE: __put_character_sequence<char, std::__1::char_traits<char> >:__len <- [%RBP+-200]
	movq	%rdi, -184(%rbp)
	movq	%rsi, -192(%rbp)
	movq	%rdx, -200(%rbp)
	.loc	16 751 61 prologue_end  ## /Applications/Xcode.app/Contents/Developer/Toolchains/XcodeDefault.xctoolchain/usr/bin/../include/c++/v1/ostream:751:61
Ltmp65:
	movq	-184(%rbp), %rsi
	.loc	16 751 57 is_stmt 0     ## /Applications/Xcode.app/Contents/Developer/Toolchains/XcodeDefault.xctoolchain/usr/bin/../include/c++/v1/ostream:751:57
Ltmp41:
	leaq	-216(%rbp), %rdi
	callq	__ZNSt3__113basic_ostreamIcNS_11char_traitsIcEEE6sentryC1ERS3_
Ltmp42:
	jmp	LBB4_1
LBB4_1:
	##DEBUG_VALUE: __put_character_sequence<char, std::__1::char_traits<char> >:__len <- [%RBP+-200]
	##DEBUG_VALUE: __put_character_sequence<char, std::__1::char_traits<char> >:__str <- [%RBP+-192]
	##DEBUG_VALUE: __put_character_sequence<char, std::__1::char_traits<char> >:__os <- [%RBP+-184]
	leaq	-216(%rbp), %rax
	.loc	16 752 13 is_stmt 1     ## /Applications/Xcode.app/Contents/Developer/Toolchains/XcodeDefault.xctoolchain/usr/bin/../include/c++/v1/ostream:752:13
Ltmp66:
	movq	%rax, -176(%rbp)
	movq	-176(%rbp), %rax
	.loc	16 240 39               ## /Applications/Xcode.app/Contents/Developer/Toolchains/XcodeDefault.xctoolchain/usr/bin/../include/c++/v1/ostream:240:39
Ltmp67:
	movb	(%rax), %cl
	movb	%cl, -249(%rbp)         ## 1-byte Spill
Ltmp68:
## BB#2:
	##DEBUG_VALUE: __put_character_sequence<char, std::__1::char_traits<char> >:__len <- [%RBP+-200]
	##DEBUG_VALUE: __put_character_sequence<char, std::__1::char_traits<char> >:__str <- [%RBP+-192]
	##DEBUG_VALUE: __put_character_sequence<char, std::__1::char_traits<char> >:__os <- [%RBP+-184]
	.loc	16 752 13               ## /Applications/Xcode.app/Contents/Developer/Toolchains/XcodeDefault.xctoolchain/usr/bin/../include/c++/v1/ostream:752:13
	movb	-249(%rbp), %al         ## 1-byte Reload
	testb	$1, %al
	jne	LBB4_3
	jmp	LBB4_26
LBB4_3:
	##DEBUG_VALUE: __put_character_sequence<char, std::__1::char_traits<char> >:__len <- [%RBP+-200]
	##DEBUG_VALUE: __put_character_sequence<char, std::__1::char_traits<char> >:__str <- [%RBP+-192]
	##DEBUG_VALUE: __put_character_sequence<char, std::__1::char_traits<char> >:__os <- [%RBP+-184]
	leaq	-240(%rbp), %rax
	.loc	16 755 38               ## /Applications/Xcode.app/Contents/Developer/Toolchains/XcodeDefault.xctoolchain/usr/bin/../include/c++/v1/ostream:755:38
Ltmp69:
	movq	-184(%rbp), %rcx
	.loc	16 755 34 is_stmt 0     ## /Applications/Xcode.app/Contents/Developer/Toolchains/XcodeDefault.xctoolchain/usr/bin/../include/c++/v1/ostream:755:34
	movq	%rax, -160(%rbp)
	movq	%rcx, -168(%rbp)
	movq	-160(%rbp), %rax
	.loc	14 908 32 is_stmt 1     ## /Applications/Xcode.app/Contents/Developer/Toolchains/XcodeDefault.xctoolchain/usr/bin/../include/c++/v1/iterator:908:32
Ltmp70:
	movq	-168(%rbp), %rcx
	movq	%rax, -144(%rbp)
	movq	%rcx, -152(%rbp)
	movq	-144(%rbp), %rax
	.loc	14 908 19 is_stmt 0     ## /Applications/Xcode.app/Contents/Developer/Toolchains/XcodeDefault.xctoolchain/usr/bin/../include/c++/v1/iterator:908:19
Ltmp71:
	movq	-152(%rbp), %rcx
	movq	(%rcx), %rdx
	movq	-24(%rdx), %rdx
	addq	%rdx, %rcx
	movq	%rcx, -136(%rbp)
	movq	-136(%rbp), %rcx
	.loc	2 696 66 is_stmt 1      ## /Applications/Xcode.app/Contents/Developer/Toolchains/XcodeDefault.xctoolchain/usr/bin/../include/c++/v1/ios:696:66
Ltmp72:
	movq	%rcx, -128(%rbp)
	movq	-128(%rbp), %rcx
	.loc	2 337 55                ## /Applications/Xcode.app/Contents/Developer/Toolchains/XcodeDefault.xctoolchain/usr/bin/../include/c++/v1/ios:337:55
Ltmp73:
	movq	40(%rcx), %rcx
Ltmp74:
	.loc	14 908 11               ## /Applications/Xcode.app/Contents/Developer/Toolchains/XcodeDefault.xctoolchain/usr/bin/../include/c++/v1/iterator:908:11
	movq	%rcx, (%rax)
Ltmp75:
	.loc	16 756 34               ## /Applications/Xcode.app/Contents/Developer/Toolchains/XcodeDefault.xctoolchain/usr/bin/../include/c++/v1/ostream:756:34
	movq	-192(%rbp), %rsi
	.loc	16 757 35               ## /Applications/Xcode.app/Contents/Developer/Toolchains/XcodeDefault.xctoolchain/usr/bin/../include/c++/v1/ostream:757:35
	movq	-184(%rbp), %rax
	movq	(%rax), %rcx
	movq	-24(%rcx), %rcx
	addq	%rcx, %rax
	movq	%rax, -88(%rbp)
	movq	-88(%rbp), %rax
	.loc	2 437 12                ## /Applications/Xcode.app/Contents/Developer/Toolchains/XcodeDefault.xctoolchain/usr/bin/../include/c++/v1/ios:437:12
Ltmp76:
	movl	8(%rax), %edi
	movq	%rsi, -264(%rbp)        ## 8-byte Spill
	movl	%edi, -268(%rbp)        ## 4-byte Spill
Ltmp77:
## BB#4:
	##DEBUG_VALUE: __put_character_sequence<char, std::__1::char_traits<char> >:__len <- [%RBP+-200]
	##DEBUG_VALUE: __put_character_sequence<char, std::__1::char_traits<char> >:__str <- [%RBP+-192]
	##DEBUG_VALUE: __put_character_sequence<char, std::__1::char_traits<char> >:__os <- [%RBP+-184]
	.loc	16 757 48               ## /Applications/Xcode.app/Contents/Developer/Toolchains/XcodeDefault.xctoolchain/usr/bin/../include/c++/v1/ostream:757:48
	movl	-268(%rbp), %eax        ## 4-byte Reload
	andl	$176, %eax
	.loc	16 757 73 is_stmt 0     ## /Applications/Xcode.app/Contents/Developer/Toolchains/XcodeDefault.xctoolchain/usr/bin/../include/c++/v1/ostream:757:73
	cmpl	$32, %eax
	.loc	16 757 34               ## /Applications/Xcode.app/Contents/Developer/Toolchains/XcodeDefault.xctoolchain/usr/bin/../include/c++/v1/ostream:757:34
	jne	LBB4_6
## BB#5:
	##DEBUG_VALUE: __put_character_sequence<char, std::__1::char_traits<char> >:__len <- [%RBP+-200]
	##DEBUG_VALUE: __put_character_sequence<char, std::__1::char_traits<char> >:__str <- [%RBP+-192]
	##DEBUG_VALUE: __put_character_sequence<char, std::__1::char_traits<char> >:__os <- [%RBP+-184]
	.loc	16 758 38 is_stmt 1     ## /Applications/Xcode.app/Contents/Developer/Toolchains/XcodeDefault.xctoolchain/usr/bin/../include/c++/v1/ostream:758:38
	movq	-192(%rbp), %rax
	.loc	16 758 44 is_stmt 0     ## /Applications/Xcode.app/Contents/Developer/Toolchains/XcodeDefault.xctoolchain/usr/bin/../include/c++/v1/ostream:758:44
	addq	-200(%rbp), %rax
	.loc	16 757 34 is_stmt 1     ## /Applications/Xcode.app/Contents/Developer/Toolchains/XcodeDefault.xctoolchain/usr/bin/../include/c++/v1/ostream:757:34
	movq	%rax, -280(%rbp)        ## 8-byte Spill
	jmp	LBB4_7
LBB4_6:
	##DEBUG_VALUE: __put_character_sequence<char, std::__1::char_traits<char> >:__len <- [%RBP+-200]
	##DEBUG_VALUE: __put_character_sequence<char, std::__1::char_traits<char> >:__str <- [%RBP+-192]
	##DEBUG_VALUE: __put_character_sequence<char, std::__1::char_traits<char> >:__os <- [%RBP+-184]
	.loc	16 759 38               ## /Applications/Xcode.app/Contents/Developer/Toolchains/XcodeDefault.xctoolchain/usr/bin/../include/c++/v1/ostream:759:38
	movq	-192(%rbp), %rax
	movq	%rax, -280(%rbp)        ## 8-byte Spill
LBB4_7:
	##DEBUG_VALUE: __put_character_sequence<char, std::__1::char_traits<char> >:__len <- [%RBP+-200]
	##DEBUG_VALUE: __put_character_sequence<char, std::__1::char_traits<char> >:__str <- [%RBP+-192]
	##DEBUG_VALUE: __put_character_sequence<char, std::__1::char_traits<char> >:__os <- [%RBP+-184]
	.loc	16 757 34               ## /Applications/Xcode.app/Contents/Developer/Toolchains/XcodeDefault.xctoolchain/usr/bin/../include/c++/v1/ostream:757:34
	movq	-280(%rbp), %rax        ## 8-byte Reload
	.loc	16 760 34               ## /Applications/Xcode.app/Contents/Developer/Toolchains/XcodeDefault.xctoolchain/usr/bin/../include/c++/v1/ostream:760:34
	movq	-192(%rbp), %rcx
	.loc	16 760 40 is_stmt 0     ## /Applications/Xcode.app/Contents/Developer/Toolchains/XcodeDefault.xctoolchain/usr/bin/../include/c++/v1/ostream:760:40
	addq	-200(%rbp), %rcx
	.loc	16 761 34 is_stmt 1     ## /Applications/Xcode.app/Contents/Developer/Toolchains/XcodeDefault.xctoolchain/usr/bin/../include/c++/v1/ostream:761:34
	movq	-184(%rbp), %rdx
	movq	(%rdx), %rsi
	movq	-24(%rsi), %rsi
	addq	%rsi, %rdx
	.loc	16 762 34               ## /Applications/Xcode.app/Contents/Developer/Toolchains/XcodeDefault.xctoolchain/usr/bin/../include/c++/v1/ostream:762:34
	movq	-184(%rbp), %rsi
	movq	(%rsi), %rdi
	movq	-24(%rdi), %rdi
	addq	%rdi, %rsi
	movq	%rsi, -72(%rbp)
	movq	-72(%rbp), %rsi
	.loc	2 742 34                ## /Applications/Xcode.app/Contents/Developer/Toolchains/XcodeDefault.xctoolchain/usr/bin/../include/c++/v1/ios:742:34
Ltmp78:
	movq	%rax, -288(%rbp)        ## 8-byte Spill
	movq	%rcx, -296(%rbp)        ## 8-byte Spill
	movq	%rdx, -304(%rbp)        ## 8-byte Spill
	movq	%rsi, -312(%rbp)        ## 8-byte Spill
	callq	__ZNSt3__111char_traitsIcE3eofEv
	.loc	2 742 54 is_stmt 0      ## /Applications/Xcode.app/Contents/Developer/Toolchains/XcodeDefault.xctoolchain/usr/bin/../include/c++/v1/ios:742:54
	movq	-312(%rbp), %rcx        ## 8-byte Reload
	movl	144(%rcx), %esi
	.loc	2 742 9                 ## /Applications/Xcode.app/Contents/Developer/Toolchains/XcodeDefault.xctoolchain/usr/bin/../include/c++/v1/ios:742:9
	movl	%eax, %edi
	callq	__ZNSt3__111char_traitsIcE11eq_int_typeEii
Ltmp79:
	.loc	2 742 9                 ## /Applications/Xcode.app/Contents/Developer/Toolchains/XcodeDefault.xctoolchain/usr/bin/../include/c++/v1/ios:742:9
	testb	$1, %al
	jne	LBB4_8
	jmp	LBB4_13
LBB4_8:
	##DEBUG_VALUE: __put_character_sequence<char, std::__1::char_traits<char> >:__len <- [%RBP+-200]
	##DEBUG_VALUE: __put_character_sequence<char, std::__1::char_traits<char> >:__str <- [%RBP+-192]
	##DEBUG_VALUE: __put_character_sequence<char, std::__1::char_traits<char> >:__os <- [%RBP+-184]
	.loc	2 743 19 is_stmt 1      ## /Applications/Xcode.app/Contents/Developer/Toolchains/XcodeDefault.xctoolchain/usr/bin/../include/c++/v1/ios:743:19
Ltmp80:
	movq	-312(%rbp), %rax        ## 8-byte Reload
	movq	%rax, -32(%rbp)
	movb	$32, -33(%rbp)
	movq	-32(%rbp), %rsi
	.loc	2 734 41                ## /Applications/Xcode.app/Contents/Developer/Toolchains/XcodeDefault.xctoolchain/usr/bin/../include/c++/v1/ios:734:41
Ltmp81:
Ltmp44:
	leaq	-48(%rbp), %rdi
	callq	__ZNKSt3__18ios_base6getlocEv
Ltmp45:
	jmp	LBB4_9
LBB4_9:
	##DEBUG_VALUE: __put_character_sequence<char, std::__1::char_traits<char> >:__len <- [%RBP+-200]
	##DEBUG_VALUE: __put_character_sequence<char, std::__1::char_traits<char> >:__str <- [%RBP+-192]
	##DEBUG_VALUE: __put_character_sequence<char, std::__1::char_traits<char> >:__os <- [%RBP+-184]
	leaq	-48(%rbp), %rax
	.loc	2 734 12 is_stmt 0      ## /Applications/Xcode.app/Contents/Developer/Toolchains/XcodeDefault.xctoolchain/usr/bin/../include/c++/v1/ios:734:12
	movq	%rax, -24(%rbp)
	.loc	6 187 40 is_stmt 1      ## /Applications/Xcode.app/Contents/Developer/Toolchains/XcodeDefault.xctoolchain/usr/bin/../include/c++/v1/__locale:187:40
Ltmp82:
Ltmp46:
	movq	__ZNSt3__15ctypeIcE2idE@GOTPCREL(%rip), %rsi
	movq	%rax, %rdi
	callq	__ZNKSt3__16locale9use_facetERNS0_2idE
Ltmp47:
	movq	%rax, -320(%rbp)        ## 8-byte Spill
	jmp	LBB4_10
Ltmp83:
LBB4_10:
	##DEBUG_VALUE: __put_character_sequence<char, std::__1::char_traits<char> >:__len <- [%RBP+-200]
	##DEBUG_VALUE: __put_character_sequence<char, std::__1::char_traits<char> >:__str <- [%RBP+-192]
	##DEBUG_VALUE: __put_character_sequence<char, std::__1::char_traits<char> >:__os <- [%RBP+-184]
	.loc	2 734 57                ## /Applications/Xcode.app/Contents/Developer/Toolchains/XcodeDefault.xctoolchain/usr/bin/../include/c++/v1/ios:734:57
	movb	-33(%rbp), %al
	.loc	2 734 12 is_stmt 0      ## /Applications/Xcode.app/Contents/Developer/Toolchains/XcodeDefault.xctoolchain/usr/bin/../include/c++/v1/ios:734:12
	movq	-320(%rbp), %rcx        ## 8-byte Reload
	movq	%rcx, -8(%rbp)
	movb	%al, -9(%rbp)
	movq	-8(%rbp), %rdx
	.loc	6 603 16 is_stmt 1      ## /Applications/Xcode.app/Contents/Developer/Toolchains/XcodeDefault.xctoolchain/usr/bin/../include/c++/v1/__locale:603:16
Ltmp84:
	movq	(%rdx), %rsi
	movq	56(%rsi), %rsi
	movsbl	-9(%rbp), %edi
Ltmp48:
	movl	%edi, -324(%rbp)        ## 4-byte Spill
	movq	%rdx, %rdi
	movl	-324(%rbp), %r8d        ## 4-byte Reload
	movq	%rsi, -336(%rbp)        ## 8-byte Spill
	movl	%r8d, %esi
	movq	-336(%rbp), %rdx        ## 8-byte Reload
	callq	*%rdx
Ltmp49:
	movb	%al, -337(%rbp)         ## 1-byte Spill
	jmp	LBB4_12
Ltmp85:
LBB4_11:
	##DEBUG_VALUE: __put_character_sequence<char, std::__1::char_traits<char> >:__len <- [%RBP+-200]
	##DEBUG_VALUE: __put_character_sequence<char, std::__1::char_traits<char> >:__str <- [%RBP+-192]
	##DEBUG_VALUE: __put_character_sequence<char, std::__1::char_traits<char> >:__os <- [%RBP+-184]
Ltmp50:
	.loc	2 735 1                 ## /Applications/Xcode.app/Contents/Developer/Toolchains/XcodeDefault.xctoolchain/usr/bin/../include/c++/v1/ios:735:1
	movl	%edx, %ecx
	movq	%rax, -56(%rbp)
	movl	%ecx, -60(%rbp)
	leaq	-48(%rbp), %rdi
	.loc	2 734 5                 ## /Applications/Xcode.app/Contents/Developer/Toolchains/XcodeDefault.xctoolchain/usr/bin/../include/c++/v1/ios:734:5
	callq	__ZNSt3__16localeD1Ev
	movq	-56(%rbp), %rax
	movl	-60(%rbp), %ecx
	movq	%rax, -352(%rbp)        ## 8-byte Spill
	movl	%ecx, -356(%rbp)        ## 4-byte Spill
	jmp	LBB4_21
LBB4_12:
	##DEBUG_VALUE: __put_character_sequence<char, std::__1::char_traits<char> >:__len <- [%RBP+-200]
	##DEBUG_VALUE: __put_character_sequence<char, std::__1::char_traits<char> >:__str <- [%RBP+-192]
	##DEBUG_VALUE: __put_character_sequence<char, std::__1::char_traits<char> >:__os <- [%RBP+-184]
	leaq	-48(%rbp), %rdi
	callq	__ZNSt3__16localeD1Ev
Ltmp86:
	.loc	2 743 19                ## /Applications/Xcode.app/Contents/Developer/Toolchains/XcodeDefault.xctoolchain/usr/bin/../include/c++/v1/ios:743:19
	movb	-337(%rbp), %al         ## 1-byte Reload
	movsbl	%al, %ecx
	.loc	2 743 17 is_stmt 0      ## /Applications/Xcode.app/Contents/Developer/Toolchains/XcodeDefault.xctoolchain/usr/bin/../include/c++/v1/ios:743:17
	movq	-312(%rbp), %rdi        ## 8-byte Reload
	movl	%ecx, 144(%rdi)
Ltmp87:
LBB4_13:
	##DEBUG_VALUE: __put_character_sequence<char, std::__1::char_traits<char> >:__len <- [%RBP+-200]
	##DEBUG_VALUE: __put_character_sequence<char, std::__1::char_traits<char> >:__str <- [%RBP+-192]
	##DEBUG_VALUE: __put_character_sequence<char, std::__1::char_traits<char> >:__os <- [%RBP+-184]
	.loc	2 744 12 is_stmt 1      ## /Applications/Xcode.app/Contents/Developer/Toolchains/XcodeDefault.xctoolchain/usr/bin/../include/c++/v1/ios:744:12
	movq	-312(%rbp), %rax        ## 8-byte Reload
	movl	144(%rax), %ecx
	movb	%cl, %dl
	movb	%dl, -357(%rbp)         ## 1-byte Spill
Ltmp88:
## BB#14:
	##DEBUG_VALUE: __put_character_sequence<char, std::__1::char_traits<char> >:__len <- [%RBP+-200]
	##DEBUG_VALUE: __put_character_sequence<char, std::__1::char_traits<char> >:__str <- [%RBP+-192]
	##DEBUG_VALUE: __put_character_sequence<char, std::__1::char_traits<char> >:__os <- [%RBP+-184]
	.loc	16 755 17               ## /Applications/Xcode.app/Contents/Developer/Toolchains/XcodeDefault.xctoolchain/usr/bin/../include/c++/v1/ostream:755:17
	movq	-240(%rbp), %rdi
Ltmp51:
	movb	-357(%rbp), %al         ## 1-byte Reload
	movsbl	%al, %r9d
	movq	-264(%rbp), %rsi        ## 8-byte Reload
	movq	-288(%rbp), %rdx        ## 8-byte Reload
	movq	-296(%rbp), %rcx        ## 8-byte Reload
	movq	-304(%rbp), %r8         ## 8-byte Reload
	callq	__ZNSt3__116__pad_and_outputIcNS_11char_traitsIcEEEENS_19ostreambuf_iteratorIT_T0_EES6_PKS4_S8_S8_RNS_8ios_baseES4_
Ltmp52:
	movq	%rax, -368(%rbp)        ## 8-byte Spill
	jmp	LBB4_15
LBB4_15:
	##DEBUG_VALUE: __put_character_sequence<char, std::__1::char_traits<char> >:__len <- [%RBP+-200]
	##DEBUG_VALUE: __put_character_sequence<char, std::__1::char_traits<char> >:__str <- [%RBP+-192]
	##DEBUG_VALUE: __put_character_sequence<char, std::__1::char_traits<char> >:__os <- [%RBP+-184]
	leaq	-248(%rbp), %rax
	movq	-368(%rbp), %rcx        ## 8-byte Reload
	movq	%rcx, -248(%rbp)
	movq	%rax, -80(%rbp)
	movq	-80(%rbp), %rax
	.loc	14 920 77               ## /Applications/Xcode.app/Contents/Developer/Toolchains/XcodeDefault.xctoolchain/usr/bin/../include/c++/v1/iterator:920:77
Ltmp89:
	cmpq	$0, (%rax)
Ltmp90:
	.loc	16 755 17               ## /Applications/Xcode.app/Contents/Developer/Toolchains/XcodeDefault.xctoolchain/usr/bin/../include/c++/v1/ostream:755:17
	jne	LBB4_25
## BB#16:
	##DEBUG_VALUE: __put_character_sequence<char, std::__1::char_traits<char> >:__len <- [%RBP+-200]
	##DEBUG_VALUE: __put_character_sequence<char, std::__1::char_traits<char> >:__str <- [%RBP+-192]
	##DEBUG_VALUE: __put_character_sequence<char, std::__1::char_traits<char> >:__os <- [%RBP+-184]
	.loc	16 763 17               ## /Applications/Xcode.app/Contents/Developer/Toolchains/XcodeDefault.xctoolchain/usr/bin/../include/c++/v1/ostream:763:17
Ltmp91:
	movq	-184(%rbp), %rax
	movq	(%rax), %rcx
	movq	-24(%rcx), %rcx
	addq	%rcx, %rax
	movq	%rax, -112(%rbp)
	movl	$5, -116(%rbp)
	movq	-112(%rbp), %rax
	.loc	2 589 59                ## /Applications/Xcode.app/Contents/Developer/Toolchains/XcodeDefault.xctoolchain/usr/bin/../include/c++/v1/ios:589:59
Ltmp92:
	movq	%rax, -96(%rbp)
	movl	$5, -100(%rbp)
	movq	-96(%rbp), %rax
	.loc	2 524 11                ## /Applications/Xcode.app/Contents/Developer/Toolchains/XcodeDefault.xctoolchain/usr/bin/../include/c++/v1/ios:524:11
Ltmp93:
	movl	32(%rax), %edx
	.loc	2 524 22 is_stmt 0      ## /Applications/Xcode.app/Contents/Developer/Toolchains/XcodeDefault.xctoolchain/usr/bin/../include/c++/v1/ios:524:22
	orl	$5, %edx
	.loc	2 524 5                 ## /Applications/Xcode.app/Contents/Developer/Toolchains/XcodeDefault.xctoolchain/usr/bin/../include/c++/v1/ios:524:5
Ltmp53:
	movq	%rax, %rdi
	movl	%edx, %esi
	callq	__ZNSt3__18ios_base5clearEj
Ltmp54:
	jmp	LBB4_17
Ltmp94:
LBB4_17:
	##DEBUG_VALUE: __put_character_sequence<char, std::__1::char_traits<char> >:__len <- [%RBP+-200]
	##DEBUG_VALUE: __put_character_sequence<char, std::__1::char_traits<char> >:__str <- [%RBP+-192]
	##DEBUG_VALUE: __put_character_sequence<char, std::__1::char_traits<char> >:__os <- [%RBP+-184]
	.loc	2 589 87 is_stmt 1      ## /Applications/Xcode.app/Contents/Developer/Toolchains/XcodeDefault.xctoolchain/usr/bin/../include/c++/v1/ios:589:87
	jmp	LBB4_18
Ltmp95:
LBB4_18:
	##DEBUG_VALUE: __put_character_sequence<char, std::__1::char_traits<char> >:__len <- [%RBP+-200]
	##DEBUG_VALUE: __put_character_sequence<char, std::__1::char_traits<char> >:__str <- [%RBP+-192]
	##DEBUG_VALUE: __put_character_sequence<char, std::__1::char_traits<char> >:__os <- [%RBP+-184]
	.loc	16 763 17               ## /Applications/Xcode.app/Contents/Developer/Toolchains/XcodeDefault.xctoolchain/usr/bin/../include/c++/v1/ostream:763:17
	jmp	LBB4_25
Ltmp96:
LBB4_19:
	##DEBUG_VALUE: __put_character_sequence<char, std::__1::char_traits<char> >:__len <- [%RBP+-200]
	##DEBUG_VALUE: __put_character_sequence<char, std::__1::char_traits<char> >:__str <- [%RBP+-192]
	##DEBUG_VALUE: __put_character_sequence<char, std::__1::char_traits<char> >:__os <- [%RBP+-184]
Ltmp43:
	.loc	16 773 1                ## /Applications/Xcode.app/Contents/Developer/Toolchains/XcodeDefault.xctoolchain/usr/bin/../include/c++/v1/ostream:773:1
	movl	%edx, %ecx
	movq	%rax, -224(%rbp)
	movl	%ecx, -228(%rbp)
	jmp	LBB4_22
LBB4_20:
	##DEBUG_VALUE: __put_character_sequence<char, std::__1::char_traits<char> >:__len <- [%RBP+-200]
	##DEBUG_VALUE: __put_character_sequence<char, std::__1::char_traits<char> >:__str <- [%RBP+-192]
	##DEBUG_VALUE: __put_character_sequence<char, std::__1::char_traits<char> >:__os <- [%RBP+-184]
Ltmp55:
	.loc	16 773 1 is_stmt 0      ## /Applications/Xcode.app/Contents/Developer/Toolchains/XcodeDefault.xctoolchain/usr/bin/../include/c++/v1/ostream:773:1
Ltmp97:
	movl	%edx, %ecx
	movq	%rax, -352(%rbp)        ## 8-byte Spill
	movl	%ecx, -356(%rbp)        ## 4-byte Spill
	jmp	LBB4_21
LBB4_21:
	##DEBUG_VALUE: __put_character_sequence<char, std::__1::char_traits<char> >:__len <- [%RBP+-200]
	##DEBUG_VALUE: __put_character_sequence<char, std::__1::char_traits<char> >:__str <- [%RBP+-192]
	##DEBUG_VALUE: __put_character_sequence<char, std::__1::char_traits<char> >:__os <- [%RBP+-184]
	movl	-356(%rbp), %eax        ## 4-byte Reload
	movq	-352(%rbp), %rcx        ## 8-byte Reload
	leaq	-216(%rbp), %rdi
	movq	%rcx, -224(%rbp)
	movl	%eax, -228(%rbp)
Ltmp98:
	.loc	16 766 5 is_stmt 1      ## /Applications/Xcode.app/Contents/Developer/Toolchains/XcodeDefault.xctoolchain/usr/bin/../include/c++/v1/ostream:766:5
	callq	__ZNSt3__113basic_ostreamIcNS_11char_traitsIcEEE6sentryD1Ev
LBB4_22:
	##DEBUG_VALUE: __put_character_sequence<char, std::__1::char_traits<char> >:__len <- [%RBP+-200]
	##DEBUG_VALUE: __put_character_sequence<char, std::__1::char_traits<char> >:__str <- [%RBP+-192]
	##DEBUG_VALUE: __put_character_sequence<char, std::__1::char_traits<char> >:__os <- [%RBP+-184]
	.loc	16 766 5 is_stmt 0      ## /Applications/Xcode.app/Contents/Developer/Toolchains/XcodeDefault.xctoolchain/usr/bin/../include/c++/v1/ostream:766:5
Ltmp99:
	movq	-224(%rbp), %rdi
	callq	___cxa_begin_catch
Ltmp100:
	.loc	16 769 9 is_stmt 1      ## /Applications/Xcode.app/Contents/Developer/Toolchains/XcodeDefault.xctoolchain/usr/bin/../include/c++/v1/ostream:769:9
	movq	-184(%rbp), %rdi
	movq	(%rdi), %rcx
	movq	-24(%rcx), %rcx
	addq	%rcx, %rdi
Ltmp56:
	movq	%rax, -376(%rbp)        ## 8-byte Spill
	callq	__ZNSt3__18ios_base33__set_badbit_and_consider_rethrowEv
Ltmp57:
	jmp	LBB4_23
LBB4_23:
	##DEBUG_VALUE: __put_character_sequence<char, std::__1::char_traits<char> >:__len <- [%RBP+-200]
	##DEBUG_VALUE: __put_character_sequence<char, std::__1::char_traits<char> >:__str <- [%RBP+-192]
	##DEBUG_VALUE: __put_character_sequence<char, std::__1::char_traits<char> >:__os <- [%RBP+-184]
	.loc	16 770 5                ## /Applications/Xcode.app/Contents/Developer/Toolchains/XcodeDefault.xctoolchain/usr/bin/../include/c++/v1/ostream:770:5
	callq	___cxa_end_catch
Ltmp101:
LBB4_24:
	##DEBUG_VALUE: __put_character_sequence<char, std::__1::char_traits<char> >:__len <- [%RBP+-200]
	##DEBUG_VALUE: __put_character_sequence<char, std::__1::char_traits<char> >:__str <- [%RBP+-192]
	##DEBUG_VALUE: __put_character_sequence<char, std::__1::char_traits<char> >:__os <- [%RBP+-184]
	.loc	16 772 12               ## /Applications/Xcode.app/Contents/Developer/Toolchains/XcodeDefault.xctoolchain/usr/bin/../include/c++/v1/ostream:772:12
	movq	-184(%rbp), %rax
	.loc	16 772 5 is_stmt 0      ## /Applications/Xcode.app/Contents/Developer/Toolchains/XcodeDefault.xctoolchain/usr/bin/../include/c++/v1/ostream:772:5
	addq	$384, %rsp              ## imm = 0x180
	popq	%rbp
	retq
LBB4_25:
	##DEBUG_VALUE: __put_character_sequence<char, std::__1::char_traits<char> >:__len <- [%RBP+-200]
	##DEBUG_VALUE: __put_character_sequence<char, std::__1::char_traits<char> >:__str <- [%RBP+-192]
	##DEBUG_VALUE: __put_character_sequence<char, std::__1::char_traits<char> >:__os <- [%RBP+-184]
	.loc	16 764 9 is_stmt 1      ## /Applications/Xcode.app/Contents/Developer/Toolchains/XcodeDefault.xctoolchain/usr/bin/../include/c++/v1/ostream:764:9
Ltmp102:
	jmp	LBB4_26
Ltmp103:
LBB4_26:
	##DEBUG_VALUE: __put_character_sequence<char, std::__1::char_traits<char> >:__len <- [%RBP+-200]
	##DEBUG_VALUE: __put_character_sequence<char, std::__1::char_traits<char> >:__str <- [%RBP+-192]
	##DEBUG_VALUE: __put_character_sequence<char, std::__1::char_traits<char> >:__os <- [%RBP+-184]
	leaq	-216(%rbp), %rdi
	.loc	16 766 5                ## /Applications/Xcode.app/Contents/Developer/Toolchains/XcodeDefault.xctoolchain/usr/bin/../include/c++/v1/ostream:766:5
	callq	__ZNSt3__113basic_ostreamIcNS_11char_traitsIcEEE6sentryD1Ev
	.loc	16 766 5 is_stmt 0      ## /Applications/Xcode.app/Contents/Developer/Toolchains/XcodeDefault.xctoolchain/usr/bin/../include/c++/v1/ostream:766:5
Ltmp104:
	jmp	LBB4_24
Ltmp105:
LBB4_27:
	##DEBUG_VALUE: __put_character_sequence<char, std::__1::char_traits<char> >:__len <- [%RBP+-200]
	##DEBUG_VALUE: __put_character_sequence<char, std::__1::char_traits<char> >:__str <- [%RBP+-192]
	##DEBUG_VALUE: __put_character_sequence<char, std::__1::char_traits<char> >:__os <- [%RBP+-184]
Ltmp58:
	.loc	16 773 1 is_stmt 1      ## /Applications/Xcode.app/Contents/Developer/Toolchains/XcodeDefault.xctoolchain/usr/bin/../include/c++/v1/ostream:773:1
Ltmp106:
	movl	%edx, %ecx
	movq	%rax, -224(%rbp)
	movl	%ecx, -228(%rbp)
	.loc	16 770 5                ## /Applications/Xcode.app/Contents/Developer/Toolchains/XcodeDefault.xctoolchain/usr/bin/../include/c++/v1/ostream:770:5
Ltmp59:
	callq	___cxa_end_catch
Ltmp60:
	jmp	LBB4_28
LBB4_28:
	##DEBUG_VALUE: __put_character_sequence<char, std::__1::char_traits<char> >:__len <- [%RBP+-200]
	##DEBUG_VALUE: __put_character_sequence<char, std::__1::char_traits<char> >:__str <- [%RBP+-192]
	##DEBUG_VALUE: __put_character_sequence<char, std::__1::char_traits<char> >:__os <- [%RBP+-184]
	jmp	LBB4_29
LBB4_29:
	##DEBUG_VALUE: __put_character_sequence<char, std::__1::char_traits<char> >:__len <- [%RBP+-200]
	##DEBUG_VALUE: __put_character_sequence<char, std::__1::char_traits<char> >:__str <- [%RBP+-192]
	##DEBUG_VALUE: __put_character_sequence<char, std::__1::char_traits<char> >:__os <- [%RBP+-184]
	movq	-224(%rbp), %rdi
	callq	__Unwind_Resume
LBB4_30:
	##DEBUG_VALUE: __put_character_sequence<char, std::__1::char_traits<char> >:__len <- [%RBP+-200]
	##DEBUG_VALUE: __put_character_sequence<char, std::__1::char_traits<char> >:__str <- [%RBP+-192]
	##DEBUG_VALUE: __put_character_sequence<char, std::__1::char_traits<char> >:__os <- [%RBP+-184]
Ltmp61:
	movl	%edx, %ecx
	movq	%rax, %rdi
	movl	%ecx, -380(%rbp)        ## 4-byte Spill
	callq	___clang_call_terminate
Ltmp107:
Lfunc_end4:
	.cfi_endproc
	.section	__TEXT,__gcc_except_tab
	.align	2
GCC_except_table4:
Lexception1:
	.byte	255                     ## @LPStart Encoding = omit
	.byte	155                     ## @TType Encoding = indirect pcrel sdata4
	.asciz	"\201\201\200\200"      ## @TType base offset
	.byte	3                       ## Call site Encoding = udata4
	.byte	117                     ## Call site table length
Lset7 = Ltmp41-Lfunc_begin4             ## >> Call Site 1 <<
	.long	Lset7
Lset8 = Ltmp42-Ltmp41                   ##   Call between Ltmp41 and Ltmp42
	.long	Lset8
Lset9 = Ltmp43-Lfunc_begin4             ##     jumps to Ltmp43
	.long	Lset9
	.byte	5                       ##   On action: 3
Lset10 = Ltmp44-Lfunc_begin4            ## >> Call Site 2 <<
	.long	Lset10
Lset11 = Ltmp45-Ltmp44                  ##   Call between Ltmp44 and Ltmp45
	.long	Lset11
Lset12 = Ltmp55-Lfunc_begin4            ##     jumps to Ltmp55
	.long	Lset12
	.byte	5                       ##   On action: 3
Lset13 = Ltmp46-Lfunc_begin4            ## >> Call Site 3 <<
	.long	Lset13
Lset14 = Ltmp49-Ltmp46                  ##   Call between Ltmp46 and Ltmp49
	.long	Lset14
Lset15 = Ltmp50-Lfunc_begin4            ##     jumps to Ltmp50
	.long	Lset15
	.byte	3                       ##   On action: 2
Lset16 = Ltmp51-Lfunc_begin4            ## >> Call Site 4 <<
	.long	Lset16
Lset17 = Ltmp54-Ltmp51                  ##   Call between Ltmp51 and Ltmp54
	.long	Lset17
Lset18 = Ltmp55-Lfunc_begin4            ##     jumps to Ltmp55
	.long	Lset18
	.byte	5                       ##   On action: 3
Lset19 = Ltmp54-Lfunc_begin4            ## >> Call Site 5 <<
	.long	Lset19
Lset20 = Ltmp56-Ltmp54                  ##   Call between Ltmp54 and Ltmp56
	.long	Lset20
	.long	0                       ##     has no landing pad
	.byte	0                       ##   On action: cleanup
Lset21 = Ltmp56-Lfunc_begin4            ## >> Call Site 6 <<
	.long	Lset21
Lset22 = Ltmp57-Ltmp56                  ##   Call between Ltmp56 and Ltmp57
	.long	Lset22
Lset23 = Ltmp58-Lfunc_begin4            ##     jumps to Ltmp58
	.long	Lset23
	.byte	0                       ##   On action: cleanup
Lset24 = Ltmp57-Lfunc_begin4            ## >> Call Site 7 <<
	.long	Lset24
Lset25 = Ltmp59-Ltmp57                  ##   Call between Ltmp57 and Ltmp59
	.long	Lset25
	.long	0                       ##     has no landing pad
	.byte	0                       ##   On action: cleanup
Lset26 = Ltmp59-Lfunc_begin4            ## >> Call Site 8 <<
	.long	Lset26
Lset27 = Ltmp60-Ltmp59                  ##   Call between Ltmp59 and Ltmp60
	.long	Lset27
Lset28 = Ltmp61-Lfunc_begin4            ##     jumps to Ltmp61
	.long	Lset28
	.byte	5                       ##   On action: 3
Lset29 = Ltmp60-Lfunc_begin4            ## >> Call Site 9 <<
	.long	Lset29
Lset30 = Lfunc_end4-Ltmp60              ##   Call between Ltmp60 and Lfunc_end4
	.long	Lset30
	.long	0                       ##     has no landing pad
	.byte	0                       ##   On action: cleanup
	.byte	0                       ## >> Action Record 1 <<
                                        ##   Cleanup
	.byte	0                       ##   No further actions
	.byte	1                       ## >> Action Record 2 <<
                                        ##   Catch TypeInfo 1
	.byte	125                     ##   Continue to action 1
	.byte	1                       ## >> Action Record 3 <<
                                        ##   Catch TypeInfo 1
	.byte	0                       ##   No further actions
                                        ## >> Catch TypeInfos <<
	.long	0                       ## TypeInfo 1
	.align	2

	.section	__TEXT,__text,regular,pure_instructions
	.globl	__ZNSt3__111char_traitsIcE6lengthEPKc
	.weak_def_can_be_hidden	__ZNSt3__111char_traitsIcE6lengthEPKc
	.align	4, 0x90
__ZNSt3__111char_traitsIcE6lengthEPKc:  ## @_ZNSt3__111char_traitsIcE6lengthEPKc
Lfunc_begin5:
	.loc	7 644 0                 ## /Applications/Xcode.app/Contents/Developer/Toolchains/XcodeDefault.xctoolchain/usr/bin/../include/c++/v1/string:644:0
	.cfi_startproc
## BB#0:
	pushq	%rbp
Ltmp108:
	.cfi_def_cfa_offset 16
Ltmp109:
	.cfi_offset %rbp, -16
	movq	%rsp, %rbp
Ltmp110:
	.cfi_def_cfa_register %rbp
	subq	$16, %rsp
	movq	%rdi, -8(%rbp)
	.loc	7 644 70 prologue_end   ## /Applications/Xcode.app/Contents/Developer/Toolchains/XcodeDefault.xctoolchain/usr/bin/../include/c++/v1/string:644:70
Ltmp111:
	movq	-8(%rbp), %rdi
	.loc	7 644 63 is_stmt 0      ## /Applications/Xcode.app/Contents/Developer/Toolchains/XcodeDefault.xctoolchain/usr/bin/../include/c++/v1/string:644:63
	callq	_strlen
	.loc	7 644 56                ## /Applications/Xcode.app/Contents/Developer/Toolchains/XcodeDefault.xctoolchain/usr/bin/../include/c++/v1/string:644:56
	addq	$16, %rsp
	popq	%rbp
	retq
Ltmp112:
Lfunc_end5:
	.cfi_endproc

	.private_extern	__ZNSt3__116__pad_and_outputIcNS_11char_traitsIcEEEENS_19ostreambuf_iteratorIT_T0_EES6_PKS4_S8_S8_RNS_8ios_baseES4_
	.globl	__ZNSt3__116__pad_and_outputIcNS_11char_traitsIcEEEENS_19ostreambuf_iteratorIT_T0_EES6_PKS4_S8_S8_RNS_8ios_baseES4_
	.weak_def_can_be_hidden	__ZNSt3__116__pad_and_outputIcNS_11char_traitsIcEEEENS_19ostreambuf_iteratorIT_T0_EES6_PKS4_S8_S8_RNS_8ios_baseES4_
	.align	4, 0x90
__ZNSt3__116__pad_and_outputIcNS_11char_traitsIcEEEENS_19ostreambuf_iteratorIT_T0_EES6_PKS4_S8_S8_RNS_8ios_baseES4_: ## @_ZNSt3__116__pad_and_outputIcNS_11char_traitsIcEEEENS_19ostreambuf_iteratorIT_T0_EES6_PKS4_S8_S8_RNS_8ios_baseES4_
Lfunc_begin6:
	.file	47 "/Applications/Xcode.app/Contents/Developer/Toolchains/XcodeDefault.xctoolchain/usr/bin/../include/c++/v1" "locale"
	.loc	47 1486 0 is_stmt 1     ## /Applications/Xcode.app/Contents/Developer/Toolchains/XcodeDefault.xctoolchain/usr/bin/../include/c++/v1/locale:1486:0
	.cfi_startproc
	.cfi_personality 155, ___gxx_personality_v0
	.cfi_lsda 16, Lexception2
## BB#0:
	pushq	%rbp
Ltmp116:
	.cfi_def_cfa_offset 16
Ltmp117:
	.cfi_offset %rbp, -16
	movq	%rsp, %rbp
Ltmp118:
	.cfi_def_cfa_register %rbp
	subq	$480, %rsp              ## imm = 0x1E0
	movb	%r9b, %al
	movq	%rdi, -312(%rbp)
	movq	%rsi, -320(%rbp)
	movq	%rdx, -328(%rbp)
	movq	%rcx, -336(%rbp)
	movq	%r8, -344(%rbp)
	movb	%al, -345(%rbp)
	.loc	47 1487 21 prologue_end ## /Applications/Xcode.app/Contents/Developer/Toolchains/XcodeDefault.xctoolchain/usr/bin/../include/c++/v1/locale:1487:21
Ltmp119:
	cmpq	$0, -312(%rbp)
Ltmp120:
	.loc	47 1487 9 is_stmt 0     ## /Applications/Xcode.app/Contents/Developer/Toolchains/XcodeDefault.xctoolchain/usr/bin/../include/c++/v1/locale:1487:9
	jne	LBB6_2
## BB#1:
	.loc	47 1488 16 is_stmt 1    ## /Applications/Xcode.app/Contents/Developer/Toolchains/XcodeDefault.xctoolchain/usr/bin/../include/c++/v1/locale:1488:16
Ltmp121:
	movq	-312(%rbp), %rax
	movq	%rax, -304(%rbp)
	.loc	47 1488 9 is_stmt 0     ## /Applications/Xcode.app/Contents/Developer/Toolchains/XcodeDefault.xctoolchain/usr/bin/../include/c++/v1/locale:1488:9
	jmp	LBB6_26
Ltmp122:
LBB6_2:
	.loc	47 1489 23 is_stmt 1    ## /Applications/Xcode.app/Contents/Developer/Toolchains/XcodeDefault.xctoolchain/usr/bin/../include/c++/v1/locale:1489:23
	movq	-336(%rbp), %rax
	.loc	47 1489 30 is_stmt 0    ## /Applications/Xcode.app/Contents/Developer/Toolchains/XcodeDefault.xctoolchain/usr/bin/../include/c++/v1/locale:1489:30
	movq	-320(%rbp), %rcx
	.loc	47 1489 28              ## /Applications/Xcode.app/Contents/Developer/Toolchains/XcodeDefault.xctoolchain/usr/bin/../include/c++/v1/locale:1489:28
	subq	%rcx, %rax
	.loc	47 1489 16              ## /Applications/Xcode.app/Contents/Developer/Toolchains/XcodeDefault.xctoolchain/usr/bin/../include/c++/v1/locale:1489:16
	movq	%rax, -360(%rbp)
	.loc	47 1490 23 is_stmt 1    ## /Applications/Xcode.app/Contents/Developer/Toolchains/XcodeDefault.xctoolchain/usr/bin/../include/c++/v1/locale:1490:23
	movq	-344(%rbp), %rax
	movq	%rax, -296(%rbp)
	movq	-296(%rbp), %rax
	.loc	2 499 12                ## /Applications/Xcode.app/Contents/Developer/Toolchains/XcodeDefault.xctoolchain/usr/bin/../include/c++/v1/ios:499:12
Ltmp123:
	movq	24(%rax), %rax
Ltmp124:
	.loc	47 1490 16              ## /Applications/Xcode.app/Contents/Developer/Toolchains/XcodeDefault.xctoolchain/usr/bin/../include/c++/v1/locale:1490:16
	movq	%rax, -368(%rbp)
	.loc	47 1491 9               ## /Applications/Xcode.app/Contents/Developer/Toolchains/XcodeDefault.xctoolchain/usr/bin/../include/c++/v1/locale:1491:9
Ltmp125:
	movq	-368(%rbp), %rax
	.loc	47 1491 14 is_stmt 0    ## /Applications/Xcode.app/Contents/Developer/Toolchains/XcodeDefault.xctoolchain/usr/bin/../include/c++/v1/locale:1491:14
	cmpq	-360(%rbp), %rax
Ltmp126:
	.loc	47 1491 9               ## /Applications/Xcode.app/Contents/Developer/Toolchains/XcodeDefault.xctoolchain/usr/bin/../include/c++/v1/locale:1491:9
	jle	LBB6_4
## BB#3:
	.loc	47 1492 17 is_stmt 1    ## /Applications/Xcode.app/Contents/Developer/Toolchains/XcodeDefault.xctoolchain/usr/bin/../include/c++/v1/locale:1492:17
Ltmp127:
	movq	-360(%rbp), %rax
	.loc	47 1492 14 is_stmt 0    ## /Applications/Xcode.app/Contents/Developer/Toolchains/XcodeDefault.xctoolchain/usr/bin/../include/c++/v1/locale:1492:14
	movq	-368(%rbp), %rcx
	subq	%rax, %rcx
	movq	%rcx, -368(%rbp)
	.loc	47 1492 9               ## /Applications/Xcode.app/Contents/Developer/Toolchains/XcodeDefault.xctoolchain/usr/bin/../include/c++/v1/locale:1492:9
	jmp	LBB6_5
LBB6_4:
	.loc	47 1494 14 is_stmt 1    ## /Applications/Xcode.app/Contents/Developer/Toolchains/XcodeDefault.xctoolchain/usr/bin/../include/c++/v1/locale:1494:14
	movq	$0, -368(%rbp)
Ltmp128:
LBB6_5:
	.loc	47 1495 23              ## /Applications/Xcode.app/Contents/Developer/Toolchains/XcodeDefault.xctoolchain/usr/bin/../include/c++/v1/locale:1495:23
	movq	-328(%rbp), %rax
	.loc	47 1495 30 is_stmt 0    ## /Applications/Xcode.app/Contents/Developer/Toolchains/XcodeDefault.xctoolchain/usr/bin/../include/c++/v1/locale:1495:30
	movq	-320(%rbp), %rcx
	.loc	47 1495 28              ## /Applications/Xcode.app/Contents/Developer/Toolchains/XcodeDefault.xctoolchain/usr/bin/../include/c++/v1/locale:1495:28
	subq	%rcx, %rax
	.loc	47 1495 16              ## /Applications/Xcode.app/Contents/Developer/Toolchains/XcodeDefault.xctoolchain/usr/bin/../include/c++/v1/locale:1495:16
	movq	%rax, -376(%rbp)
	.loc	47 1496 14 is_stmt 1    ## /Applications/Xcode.app/Contents/Developer/Toolchains/XcodeDefault.xctoolchain/usr/bin/../include/c++/v1/locale:1496:14
Ltmp129:
	cmpq	$0, -376(%rbp)
Ltmp130:
	.loc	47 1496 9 is_stmt 0     ## /Applications/Xcode.app/Contents/Developer/Toolchains/XcodeDefault.xctoolchain/usr/bin/../include/c++/v1/locale:1496:9
	jle	LBB6_9
## BB#6:
	.loc	47 1498 17 is_stmt 1    ## /Applications/Xcode.app/Contents/Developer/Toolchains/XcodeDefault.xctoolchain/usr/bin/../include/c++/v1/locale:1498:17
Ltmp131:
	movq	-312(%rbp), %rax
	.loc	47 1498 32 is_stmt 0    ## /Applications/Xcode.app/Contents/Developer/Toolchains/XcodeDefault.xctoolchain/usr/bin/../include/c++/v1/locale:1498:32
	movq	-320(%rbp), %rcx
	.loc	47 1498 38              ## /Applications/Xcode.app/Contents/Developer/Toolchains/XcodeDefault.xctoolchain/usr/bin/../include/c++/v1/locale:1498:38
	movq	-376(%rbp), %rdx
	.loc	47 1498 13              ## /Applications/Xcode.app/Contents/Developer/Toolchains/XcodeDefault.xctoolchain/usr/bin/../include/c++/v1/locale:1498:13
	movq	%rax, -224(%rbp)
	movq	%rcx, -232(%rbp)
	movq	%rdx, -240(%rbp)
	movq	-224(%rbp), %rax
	.loc	15 360 12 is_stmt 1     ## /Applications/Xcode.app/Contents/Developer/Toolchains/XcodeDefault.xctoolchain/usr/bin/../include/c++/v1/streambuf:360:12
Ltmp132:
	movq	(%rax), %rcx
	movq	96(%rcx), %rcx
	.loc	15 360 19 is_stmt 0     ## /Applications/Xcode.app/Contents/Developer/Toolchains/XcodeDefault.xctoolchain/usr/bin/../include/c++/v1/streambuf:360:19
	movq	-232(%rbp), %rsi
	.loc	15 360 24               ## /Applications/Xcode.app/Contents/Developer/Toolchains/XcodeDefault.xctoolchain/usr/bin/../include/c++/v1/streambuf:360:24
	movq	-240(%rbp), %rdx
	.loc	15 360 12               ## /Applications/Xcode.app/Contents/Developer/Toolchains/XcodeDefault.xctoolchain/usr/bin/../include/c++/v1/streambuf:360:12
	movq	%rax, %rdi
	callq	*%rcx
Ltmp133:
	.loc	47 1498 44 is_stmt 1    ## /Applications/Xcode.app/Contents/Developer/Toolchains/XcodeDefault.xctoolchain/usr/bin/../include/c++/v1/locale:1498:44
	cmpq	-376(%rbp), %rax
Ltmp134:
	.loc	47 1498 13 is_stmt 0    ## /Applications/Xcode.app/Contents/Developer/Toolchains/XcodeDefault.xctoolchain/usr/bin/../include/c++/v1/locale:1498:13
	je	LBB6_8
## BB#7:
	.loc	47 1500 25 is_stmt 1    ## /Applications/Xcode.app/Contents/Developer/Toolchains/XcodeDefault.xctoolchain/usr/bin/../include/c++/v1/locale:1500:25
Ltmp135:
	movq	$0, -312(%rbp)
	.loc	47 1501 20              ## /Applications/Xcode.app/Contents/Developer/Toolchains/XcodeDefault.xctoolchain/usr/bin/../include/c++/v1/locale:1501:20
	movq	-312(%rbp), %rax
	movq	%rax, -304(%rbp)
	.loc	47 1501 13 is_stmt 0    ## /Applications/Xcode.app/Contents/Developer/Toolchains/XcodeDefault.xctoolchain/usr/bin/../include/c++/v1/locale:1501:13
	jmp	LBB6_26
Ltmp136:
LBB6_8:
	.loc	47 1503 5 is_stmt 1     ## /Applications/Xcode.app/Contents/Developer/Toolchains/XcodeDefault.xctoolchain/usr/bin/../include/c++/v1/locale:1503:5
	jmp	LBB6_9
Ltmp137:
LBB6_9:
	.loc	47 1504 14              ## /Applications/Xcode.app/Contents/Developer/Toolchains/XcodeDefault.xctoolchain/usr/bin/../include/c++/v1/locale:1504:14
	cmpq	$0, -368(%rbp)
Ltmp138:
	.loc	47 1504 9 is_stmt 0     ## /Applications/Xcode.app/Contents/Developer/Toolchains/XcodeDefault.xctoolchain/usr/bin/../include/c++/v1/locale:1504:9
	jle	LBB6_21
## BB#10:
	xorl	%esi, %esi
	movl	$24, %eax
	movl	%eax, %edx
	leaq	-400(%rbp), %rcx
Ltmp139:
	##DEBUG_VALUE: __sp <- %RCX
	.loc	47 1506 44 is_stmt 1    ## /Applications/Xcode.app/Contents/Developer/Toolchains/XcodeDefault.xctoolchain/usr/bin/../include/c++/v1/locale:1506:44
	movq	-368(%rbp), %rdi
	.loc	47 1506 50 is_stmt 0    ## /Applications/Xcode.app/Contents/Developer/Toolchains/XcodeDefault.xctoolchain/usr/bin/../include/c++/v1/locale:1506:50
	movb	-345(%rbp), %r8b
	.loc	47 1506 39              ## /Applications/Xcode.app/Contents/Developer/Toolchains/XcodeDefault.xctoolchain/usr/bin/../include/c++/v1/locale:1506:39
	movq	%rcx, -200(%rbp)
	movq	%rdi, -208(%rbp)
	movb	%r8b, -209(%rbp)
	movq	-200(%rbp), %rcx
Ltmp140:
	.loc	7 2156 1 is_stmt 1      ## /Applications/Xcode.app/Contents/Developer/Toolchains/XcodeDefault.xctoolchain/usr/bin/../include/c++/v1/string:2156:1
	movq	-208(%rbp), %rdi
	movb	-209(%rbp), %r8b
	movq	%rcx, -176(%rbp)
	movq	%rdi, -184(%rbp)
	movb	%r8b, -185(%rbp)
	movq	-176(%rbp), %rcx
	.loc	7 1372 5                ## /Applications/Xcode.app/Contents/Developer/Toolchains/XcodeDefault.xctoolchain/usr/bin/../include/c++/v1/string:1372:5
Ltmp141:
	movq	%rcx, -168(%rbp)
	movq	-168(%rbp), %rdi
	.loc	8 2409 51               ## /Applications/Xcode.app/Contents/Developer/Toolchains/XcodeDefault.xctoolchain/usr/bin/../include/c++/v1/memory:2409:51
Ltmp142:
	movq	%rdi, -160(%rbp)
	movq	-160(%rbp), %rdi
	.loc	8 2409 31 is_stmt 0     ## /Applications/Xcode.app/Contents/Developer/Toolchains/XcodeDefault.xctoolchain/usr/bin/../include/c++/v1/memory:2409:31
Ltmp143:
	movq	%rdi, -152(%rbp)
	movq	-152(%rbp), %rdi
	.loc	8 2230 75 is_stmt 1     ## /Applications/Xcode.app/Contents/Developer/Toolchains/XcodeDefault.xctoolchain/usr/bin/../include/c++/v1/memory:2230:75
Ltmp144:
	movq	%rdi, %r9
	.loc	8 2230 31 is_stmt 0     ## /Applications/Xcode.app/Contents/Developer/Toolchains/XcodeDefault.xctoolchain/usr/bin/../include/c++/v1/memory:2230:31
	movq	%r9, -144(%rbp)
	.loc	8 2230 64               ## /Applications/Xcode.app/Contents/Developer/Toolchains/XcodeDefault.xctoolchain/usr/bin/../include/c++/v1/memory:2230:64
	movq	%rcx, -424(%rbp)        ## 8-byte Spill
	callq	_memset
Ltmp145:
	.loc	7 2157 12 is_stmt 1     ## /Applications/Xcode.app/Contents/Developer/Toolchains/XcodeDefault.xctoolchain/usr/bin/../include/c++/v1/string:2157:12
	movq	-184(%rbp), %rsi
	.loc	7 2157 5 is_stmt 0      ## /Applications/Xcode.app/Contents/Developer/Toolchains/XcodeDefault.xctoolchain/usr/bin/../include/c++/v1/string:2157:5
	movq	-424(%rbp), %rdi        ## 8-byte Reload
	movsbl	-185(%rbp), %edx
	callq	__ZNSt3__112basic_stringIcNS_11char_traitsIcEENS_9allocatorIcEEE6__initEmc
	leaq	-400(%rbp), %rcx
Ltmp146:
	.loc	47 1507 17 is_stmt 1    ## /Applications/Xcode.app/Contents/Developer/Toolchains/XcodeDefault.xctoolchain/usr/bin/../include/c++/v1/locale:1507:17
	movq	-312(%rbp), %rsi
	.loc	47 1507 32 is_stmt 0    ## /Applications/Xcode.app/Contents/Developer/Toolchains/XcodeDefault.xctoolchain/usr/bin/../include/c++/v1/locale:1507:32
	movq	%rcx, -136(%rbp)
	movq	-136(%rbp), %rcx
	.loc	7 1633 79 is_stmt 1     ## /Applications/Xcode.app/Contents/Developer/Toolchains/XcodeDefault.xctoolchain/usr/bin/../include/c++/v1/string:1633:79
Ltmp147:
	movq	%rcx, -128(%rbp)
	movq	-128(%rbp), %rcx
	.loc	7 1791 17               ## /Applications/Xcode.app/Contents/Developer/Toolchains/XcodeDefault.xctoolchain/usr/bin/../include/c++/v1/string:1791:17
Ltmp148:
	movq	%rcx, -120(%rbp)
	movq	-120(%rbp), %rdi
	.loc	7 1697 22               ## /Applications/Xcode.app/Contents/Developer/Toolchains/XcodeDefault.xctoolchain/usr/bin/../include/c++/v1/string:1697:22
Ltmp149:
	movq	%rdi, -112(%rbp)
	movq	-112(%rbp), %rdi
	.loc	8 2465 83               ## /Applications/Xcode.app/Contents/Developer/Toolchains/XcodeDefault.xctoolchain/usr/bin/../include/c++/v1/memory:2465:83
Ltmp150:
	movq	%rdi, -104(%rbp)
	movq	-104(%rbp), %rdi
Ltmp151:
	.loc	7 1697 22               ## /Applications/Xcode.app/Contents/Developer/Toolchains/XcodeDefault.xctoolchain/usr/bin/../include/c++/v1/string:1697:22
	movzbl	(%rdi), %eax
	.loc	7 1697 47 is_stmt 0     ## /Applications/Xcode.app/Contents/Developer/Toolchains/XcodeDefault.xctoolchain/usr/bin/../include/c++/v1/string:1697:47
	andl	$1, %eax
	.loc	7 1697 22               ## /Applications/Xcode.app/Contents/Developer/Toolchains/XcodeDefault.xctoolchain/usr/bin/../include/c++/v1/string:1697:22
	cmpl	$0, %eax
Ltmp152:
	.loc	7 1791 17 is_stmt 1     ## /Applications/Xcode.app/Contents/Developer/Toolchains/XcodeDefault.xctoolchain/usr/bin/../include/c++/v1/string:1791:17
	movq	%rsi, -432(%rbp)        ## 8-byte Spill
	movq	%rcx, -440(%rbp)        ## 8-byte Spill
	je	LBB6_12
## BB#11:
	.loc	7 1791 31 is_stmt 0     ## /Applications/Xcode.app/Contents/Developer/Toolchains/XcodeDefault.xctoolchain/usr/bin/../include/c++/v1/string:1791:31
	movq	-440(%rbp), %rax        ## 8-byte Reload
	movq	%rax, -56(%rbp)
	movq	-56(%rbp), %rcx
	.loc	7 1779 17 is_stmt 1     ## /Applications/Xcode.app/Contents/Developer/Toolchains/XcodeDefault.xctoolchain/usr/bin/../include/c++/v1/string:1779:17
Ltmp153:
	movq	%rcx, -48(%rbp)
	movq	-48(%rbp), %rcx
	.loc	8 2465 83               ## /Applications/Xcode.app/Contents/Developer/Toolchains/XcodeDefault.xctoolchain/usr/bin/../include/c++/v1/memory:2465:83
Ltmp154:
	movq	%rcx, -40(%rbp)
	movq	-40(%rbp), %rcx
Ltmp155:
	.loc	7 1779 34               ## /Applications/Xcode.app/Contents/Developer/Toolchains/XcodeDefault.xctoolchain/usr/bin/../include/c++/v1/string:1779:34
	movq	16(%rcx), %rcx
Ltmp156:
	.loc	7 1791 17               ## /Applications/Xcode.app/Contents/Developer/Toolchains/XcodeDefault.xctoolchain/usr/bin/../include/c++/v1/string:1791:17
	movq	%rcx, -448(%rbp)        ## 8-byte Spill
	jmp	LBB6_13
LBB6_12:
	.loc	7 1791 54 is_stmt 0     ## /Applications/Xcode.app/Contents/Developer/Toolchains/XcodeDefault.xctoolchain/usr/bin/../include/c++/v1/string:1791:54
	movq	-440(%rbp), %rax        ## 8-byte Reload
	movq	%rax, -96(%rbp)
	movq	-96(%rbp), %rcx
	.loc	7 1785 59 is_stmt 1     ## /Applications/Xcode.app/Contents/Developer/Toolchains/XcodeDefault.xctoolchain/usr/bin/../include/c++/v1/string:1785:59
Ltmp157:
	movq	%rcx, -88(%rbp)
	movq	-88(%rbp), %rcx
	.loc	8 2465 83               ## /Applications/Xcode.app/Contents/Developer/Toolchains/XcodeDefault.xctoolchain/usr/bin/../include/c++/v1/memory:2465:83
Ltmp158:
	movq	%rcx, -80(%rbp)
	movq	-80(%rbp), %rcx
Ltmp159:
	.loc	7 1785 76               ## /Applications/Xcode.app/Contents/Developer/Toolchains/XcodeDefault.xctoolchain/usr/bin/../include/c++/v1/string:1785:76
	addq	$1, %rcx
	.loc	7 1785 17 is_stmt 0     ## /Applications/Xcode.app/Contents/Developer/Toolchains/XcodeDefault.xctoolchain/usr/bin/../include/c++/v1/string:1785:17
	movq	%rcx, -72(%rbp)
	.loc	8 932 34 is_stmt 1      ## /Applications/Xcode.app/Contents/Developer/Toolchains/XcodeDefault.xctoolchain/usr/bin/../include/c++/v1/memory:932:34
Ltmp160:
	movq	-72(%rbp), %rcx
	.loc	8 932 17 is_stmt 0      ## /Applications/Xcode.app/Contents/Developer/Toolchains/XcodeDefault.xctoolchain/usr/bin/../include/c++/v1/memory:932:17
	movq	%rcx, -64(%rbp)
	.file	48 "/Applications/Xcode.app/Contents/Developer/Toolchains/XcodeDefault.xctoolchain/usr/bin/../include/c++/v1" "__functional_base"
	.loc	48 87 58 is_stmt 1      ## /Applications/Xcode.app/Contents/Developer/Toolchains/XcodeDefault.xctoolchain/usr/bin/../include/c++/v1/__functional_base:87:58
Ltmp161:
	movq	-64(%rbp), %rcx
	movq	%rcx, -448(%rbp)        ## 8-byte Spill
Ltmp162:
LBB6_13:
	.loc	7 1791 17               ## /Applications/Xcode.app/Contents/Developer/Toolchains/XcodeDefault.xctoolchain/usr/bin/../include/c++/v1/string:1791:17
	movq	-448(%rbp), %rax        ## 8-byte Reload
Ltmp163:
	.loc	7 1633 55               ## /Applications/Xcode.app/Contents/Developer/Toolchains/XcodeDefault.xctoolchain/usr/bin/../include/c++/v1/string:1633:55
	movq	%rax, -32(%rbp)
Ltmp164:
	.loc	47 1507 45              ## /Applications/Xcode.app/Contents/Developer/Toolchains/XcodeDefault.xctoolchain/usr/bin/../include/c++/v1/locale:1507:45
	movq	-368(%rbp), %rcx
	.loc	47 1507 13 is_stmt 0    ## /Applications/Xcode.app/Contents/Developer/Toolchains/XcodeDefault.xctoolchain/usr/bin/../include/c++/v1/locale:1507:13
	movq	-432(%rbp), %rdx        ## 8-byte Reload
	movq	%rdx, -8(%rbp)
	movq	%rax, -16(%rbp)
	movq	%rcx, -24(%rbp)
	movq	-8(%rbp), %rax
	.loc	15 360 12 is_stmt 1     ## /Applications/Xcode.app/Contents/Developer/Toolchains/XcodeDefault.xctoolchain/usr/bin/../include/c++/v1/streambuf:360:12
Ltmp165:
	movq	(%rax), %rsi
	movq	96(%rsi), %rsi
	.loc	15 360 19 is_stmt 0     ## /Applications/Xcode.app/Contents/Developer/Toolchains/XcodeDefault.xctoolchain/usr/bin/../include/c++/v1/streambuf:360:19
	movq	-16(%rbp), %rdi
	.loc	15 360 12               ## /Applications/Xcode.app/Contents/Developer/Toolchains/XcodeDefault.xctoolchain/usr/bin/../include/c++/v1/streambuf:360:12
Ltmp113:
	movq	%rdi, -456(%rbp)        ## 8-byte Spill
	movq	%rax, %rdi
	movq	-456(%rbp), %rax        ## 8-byte Reload
	movq	%rsi, -464(%rbp)        ## 8-byte Spill
	movq	%rax, %rsi
	movq	%rcx, %rdx
	movq	-464(%rbp), %rcx        ## 8-byte Reload
	callq	*%rcx
Ltmp114:
	movq	%rax, -472(%rbp)        ## 8-byte Spill
	jmp	LBB6_14
LBB6_14:
	.loc	15 360 5                ## /Applications/Xcode.app/Contents/Developer/Toolchains/XcodeDefault.xctoolchain/usr/bin/../include/c++/v1/streambuf:360:5
	jmp	LBB6_15
Ltmp166:
LBB6_15:
	.loc	47 1507 51 is_stmt 1    ## /Applications/Xcode.app/Contents/Developer/Toolchains/XcodeDefault.xctoolchain/usr/bin/../include/c++/v1/locale:1507:51
	movq	-472(%rbp), %rax        ## 8-byte Reload
	cmpq	-368(%rbp), %rax
Ltmp167:
	.loc	47 1507 13 is_stmt 0    ## /Applications/Xcode.app/Contents/Developer/Toolchains/XcodeDefault.xctoolchain/usr/bin/../include/c++/v1/locale:1507:13
	je	LBB6_18
## BB#16:
	.loc	47 1509 25 is_stmt 1    ## /Applications/Xcode.app/Contents/Developer/Toolchains/XcodeDefault.xctoolchain/usr/bin/../include/c++/v1/locale:1509:25
Ltmp168:
	movq	$0, -312(%rbp)
	.loc	47 1510 20              ## /Applications/Xcode.app/Contents/Developer/Toolchains/XcodeDefault.xctoolchain/usr/bin/../include/c++/v1/locale:1510:20
	movq	-312(%rbp), %rax
	movq	%rax, -304(%rbp)
	movl	$1, -416(%rbp)
	.loc	47 1510 13 is_stmt 0    ## /Applications/Xcode.app/Contents/Developer/Toolchains/XcodeDefault.xctoolchain/usr/bin/../include/c++/v1/locale:1510:13
	jmp	LBB6_19
Ltmp169:
LBB6_17:
Ltmp115:
	leaq	-400(%rbp), %rdi
	.loc	47 1524 1 is_stmt 1     ## /Applications/Xcode.app/Contents/Developer/Toolchains/XcodeDefault.xctoolchain/usr/bin/../include/c++/v1/locale:1524:1
	movl	%edx, %ecx
	movq	%rax, -408(%rbp)
	movl	%ecx, -412(%rbp)
Ltmp170:
	.loc	47 1512 5               ## /Applications/Xcode.app/Contents/Developer/Toolchains/XcodeDefault.xctoolchain/usr/bin/../include/c++/v1/locale:1512:5
	callq	__ZNSt3__112basic_stringIcNS_11char_traitsIcEENS_9allocatorIcEEED1Ev
	jmp	LBB6_27
LBB6_18:
	movl	$0, -416(%rbp)
LBB6_19:
	leaq	-400(%rbp), %rdi
	callq	__ZNSt3__112basic_stringIcNS_11char_traitsIcEENS_9allocatorIcEEED1Ev
	movl	-416(%rbp), %eax
	testl	%eax, %eax
	movl	%eax, -476(%rbp)        ## 4-byte Spill
	je	LBB6_20
	jmp	LBB6_29
LBB6_29:
	movl	-476(%rbp), %eax        ## 4-byte Reload
	subl	$1, %eax
	movl	%eax, -480(%rbp)        ## 4-byte Spill
	je	LBB6_26
	jmp	LBB6_28
LBB6_20:
	.loc	47 1512 5 is_stmt 0     ## /Applications/Xcode.app/Contents/Developer/Toolchains/XcodeDefault.xctoolchain/usr/bin/../include/c++/v1/locale:1512:5
Ltmp171:
	jmp	LBB6_21
Ltmp172:
LBB6_21:
	.loc	47 1513 12 is_stmt 1    ## /Applications/Xcode.app/Contents/Developer/Toolchains/XcodeDefault.xctoolchain/usr/bin/../include/c++/v1/locale:1513:12
	movq	-336(%rbp), %rax
	.loc	47 1513 19 is_stmt 0    ## /Applications/Xcode.app/Contents/Developer/Toolchains/XcodeDefault.xctoolchain/usr/bin/../include/c++/v1/locale:1513:19
	movq	-328(%rbp), %rcx
	.loc	47 1513 17              ## /Applications/Xcode.app/Contents/Developer/Toolchains/XcodeDefault.xctoolchain/usr/bin/../include/c++/v1/locale:1513:17
	subq	%rcx, %rax
	.loc	47 1513 10              ## /Applications/Xcode.app/Contents/Developer/Toolchains/XcodeDefault.xctoolchain/usr/bin/../include/c++/v1/locale:1513:10
	movq	%rax, -376(%rbp)
	.loc	47 1514 14 is_stmt 1    ## /Applications/Xcode.app/Contents/Developer/Toolchains/XcodeDefault.xctoolchain/usr/bin/../include/c++/v1/locale:1514:14
Ltmp173:
	cmpq	$0, -376(%rbp)
Ltmp174:
	.loc	47 1514 9 is_stmt 0     ## /Applications/Xcode.app/Contents/Developer/Toolchains/XcodeDefault.xctoolchain/usr/bin/../include/c++/v1/locale:1514:9
	jle	LBB6_25
## BB#22:
	.loc	47 1516 17 is_stmt 1    ## /Applications/Xcode.app/Contents/Developer/Toolchains/XcodeDefault.xctoolchain/usr/bin/../include/c++/v1/locale:1516:17
Ltmp175:
	movq	-312(%rbp), %rax
	.loc	47 1516 32 is_stmt 0    ## /Applications/Xcode.app/Contents/Developer/Toolchains/XcodeDefault.xctoolchain/usr/bin/../include/c++/v1/locale:1516:32
	movq	-328(%rbp), %rcx
	.loc	47 1516 38              ## /Applications/Xcode.app/Contents/Developer/Toolchains/XcodeDefault.xctoolchain/usr/bin/../include/c++/v1/locale:1516:38
	movq	-376(%rbp), %rdx
	.loc	47 1516 13              ## /Applications/Xcode.app/Contents/Developer/Toolchains/XcodeDefault.xctoolchain/usr/bin/../include/c++/v1/locale:1516:13
	movq	%rax, -248(%rbp)
	movq	%rcx, -256(%rbp)
	movq	%rdx, -264(%rbp)
	movq	-248(%rbp), %rax
	.loc	15 360 12 is_stmt 1     ## /Applications/Xcode.app/Contents/Developer/Toolchains/XcodeDefault.xctoolchain/usr/bin/../include/c++/v1/streambuf:360:12
Ltmp176:
	movq	(%rax), %rcx
	movq	96(%rcx), %rcx
	.loc	15 360 19 is_stmt 0     ## /Applications/Xcode.app/Contents/Developer/Toolchains/XcodeDefault.xctoolchain/usr/bin/../include/c++/v1/streambuf:360:19
	movq	-256(%rbp), %rsi
	.loc	15 360 24               ## /Applications/Xcode.app/Contents/Developer/Toolchains/XcodeDefault.xctoolchain/usr/bin/../include/c++/v1/streambuf:360:24
	movq	-264(%rbp), %rdx
	.loc	15 360 12               ## /Applications/Xcode.app/Contents/Developer/Toolchains/XcodeDefault.xctoolchain/usr/bin/../include/c++/v1/streambuf:360:12
	movq	%rax, %rdi
	callq	*%rcx
Ltmp177:
	.loc	47 1516 44 is_stmt 1    ## /Applications/Xcode.app/Contents/Developer/Toolchains/XcodeDefault.xctoolchain/usr/bin/../include/c++/v1/locale:1516:44
	cmpq	-376(%rbp), %rax
Ltmp178:
	.loc	47 1516 13 is_stmt 0    ## /Applications/Xcode.app/Contents/Developer/Toolchains/XcodeDefault.xctoolchain/usr/bin/../include/c++/v1/locale:1516:13
	je	LBB6_24
## BB#23:
	.loc	47 1518 25 is_stmt 1    ## /Applications/Xcode.app/Contents/Developer/Toolchains/XcodeDefault.xctoolchain/usr/bin/../include/c++/v1/locale:1518:25
Ltmp179:
	movq	$0, -312(%rbp)
	.loc	47 1519 20              ## /Applications/Xcode.app/Contents/Developer/Toolchains/XcodeDefault.xctoolchain/usr/bin/../include/c++/v1/locale:1519:20
	movq	-312(%rbp), %rax
	movq	%rax, -304(%rbp)
	.loc	47 1519 13 is_stmt 0    ## /Applications/Xcode.app/Contents/Developer/Toolchains/XcodeDefault.xctoolchain/usr/bin/../include/c++/v1/locale:1519:13
	jmp	LBB6_26
Ltmp180:
LBB6_24:
	.loc	47 1521 5 is_stmt 1     ## /Applications/Xcode.app/Contents/Developer/Toolchains/XcodeDefault.xctoolchain/usr/bin/../include/c++/v1/locale:1521:5
	jmp	LBB6_25
Ltmp181:
LBB6_25:
	.loc	47 1522 5               ## /Applications/Xcode.app/Contents/Developer/Toolchains/XcodeDefault.xctoolchain/usr/bin/../include/c++/v1/locale:1522:5
	movq	-344(%rbp), %rax
	movq	%rax, -272(%rbp)
	movq	$0, -280(%rbp)
	movq	-272(%rbp), %rax
	.loc	2 506 22                ## /Applications/Xcode.app/Contents/Developer/Toolchains/XcodeDefault.xctoolchain/usr/bin/../include/c++/v1/ios:506:22
Ltmp182:
	movq	24(%rax), %rcx
	.loc	2 506 16 is_stmt 0      ## /Applications/Xcode.app/Contents/Developer/Toolchains/XcodeDefault.xctoolchain/usr/bin/../include/c++/v1/ios:506:16
	movq	%rcx, -288(%rbp)
	.loc	2 507 16 is_stmt 1      ## /Applications/Xcode.app/Contents/Developer/Toolchains/XcodeDefault.xctoolchain/usr/bin/../include/c++/v1/ios:507:16
	movq	-280(%rbp), %rcx
	.loc	2 507 14 is_stmt 0      ## /Applications/Xcode.app/Contents/Developer/Toolchains/XcodeDefault.xctoolchain/usr/bin/../include/c++/v1/ios:507:14
	movq	%rcx, 24(%rax)
Ltmp183:
	.loc	47 1523 12 is_stmt 1    ## /Applications/Xcode.app/Contents/Developer/Toolchains/XcodeDefault.xctoolchain/usr/bin/../include/c++/v1/locale:1523:12
	movq	-312(%rbp), %rax
	movq	%rax, -304(%rbp)
LBB6_26:
	.loc	47 1524 1               ## /Applications/Xcode.app/Contents/Developer/Toolchains/XcodeDefault.xctoolchain/usr/bin/../include/c++/v1/locale:1524:1
	movq	-304(%rbp), %rax
	addq	$480, %rsp              ## imm = 0x1E0
	popq	%rbp
	retq
LBB6_27:
	.loc	47 1512 5               ## /Applications/Xcode.app/Contents/Developer/Toolchains/XcodeDefault.xctoolchain/usr/bin/../include/c++/v1/locale:1512:5
Ltmp184:
	movq	-408(%rbp), %rdi
	callq	__Unwind_Resume
Ltmp185:
LBB6_28:
Lfunc_end6:
	.cfi_endproc
	.section	__TEXT,__gcc_except_tab
	.align	2
GCC_except_table6:
Lexception2:
	.byte	255                     ## @LPStart Encoding = omit
	.byte	155                     ## @TType Encoding = indirect pcrel sdata4
	.byte	41                      ## @TType base offset
	.byte	3                       ## Call site Encoding = udata4
	.byte	39                      ## Call site table length
Lset31 = Lfunc_begin6-Lfunc_begin6      ## >> Call Site 1 <<
	.long	Lset31
Lset32 = Ltmp113-Lfunc_begin6           ##   Call between Lfunc_begin6 and Ltmp113
	.long	Lset32
	.long	0                       ##     has no landing pad
	.byte	0                       ##   On action: cleanup
Lset33 = Ltmp113-Lfunc_begin6           ## >> Call Site 2 <<
	.long	Lset33
Lset34 = Ltmp114-Ltmp113                ##   Call between Ltmp113 and Ltmp114
	.long	Lset34
Lset35 = Ltmp115-Lfunc_begin6           ##     jumps to Ltmp115
	.long	Lset35
	.byte	0                       ##   On action: cleanup
Lset36 = Ltmp114-Lfunc_begin6           ## >> Call Site 3 <<
	.long	Lset36
Lset37 = Lfunc_end6-Ltmp114             ##   Call between Ltmp114 and Lfunc_end6
	.long	Lset37
	.long	0                       ##     has no landing pad
	.byte	0                       ##   On action: cleanup
	.align	2

	.section	__TEXT,__text,regular,pure_instructions
	.private_extern	___clang_call_terminate
	.globl	___clang_call_terminate
	.weak_def_can_be_hidden	___clang_call_terminate
	.align	4, 0x90
___clang_call_terminate:                ## @__clang_call_terminate
Lfunc_begin7:
	.cfi_startproc
## BB#0:
	pushq	%rax
Ltmp186:
	.cfi_def_cfa_offset 16
	callq	___cxa_begin_catch
	movq	%rax, (%rsp)            ## 8-byte Spill
	callq	__ZSt9terminatev
Lfunc_end7:
	.cfi_endproc

	.globl	__ZNSt3__111char_traitsIcE11eq_int_typeEii
	.weak_def_can_be_hidden	__ZNSt3__111char_traitsIcE11eq_int_typeEii
	.align	4, 0x90
__ZNSt3__111char_traitsIcE11eq_int_typeEii: ## @_ZNSt3__111char_traitsIcE11eq_int_typeEii
Lfunc_begin8:
	.loc	7 664 0                 ## /Applications/Xcode.app/Contents/Developer/Toolchains/XcodeDefault.xctoolchain/usr/bin/../include/c++/v1/string:664:0
	.cfi_startproc
## BB#0:
	pushq	%rbp
Ltmp187:
	.cfi_def_cfa_offset 16
Ltmp188:
	.cfi_offset %rbp, -16
	movq	%rsp, %rbp
Ltmp189:
	.cfi_def_cfa_register %rbp
	movl	%edi, -4(%rbp)
	movl	%esi, -8(%rbp)
	.loc	7 664 17 prologue_end   ## /Applications/Xcode.app/Contents/Developer/Toolchains/XcodeDefault.xctoolchain/usr/bin/../include/c++/v1/string:664:17
Ltmp190:
	movl	-4(%rbp), %esi
	.loc	7 664 22 is_stmt 0      ## /Applications/Xcode.app/Contents/Developer/Toolchains/XcodeDefault.xctoolchain/usr/bin/../include/c++/v1/string:664:22
	cmpl	-8(%rbp), %esi
	sete	%al
	.loc	7 664 10                ## /Applications/Xcode.app/Contents/Developer/Toolchains/XcodeDefault.xctoolchain/usr/bin/../include/c++/v1/string:664:10
	andb	$1, %al
	movzbl	%al, %eax
	popq	%rbp
	retq
Ltmp191:
Lfunc_end8:
	.cfi_endproc

	.globl	__ZNSt3__111char_traitsIcE3eofEv
	.weak_def_can_be_hidden	__ZNSt3__111char_traitsIcE3eofEv
	.align	4, 0x90
__ZNSt3__111char_traitsIcE3eofEv:       ## @_ZNSt3__111char_traitsIcE3eofEv
Lfunc_begin9:
	.loc	7 666 0 is_stmt 1       ## /Applications/Xcode.app/Contents/Developer/Toolchains/XcodeDefault.xctoolchain/usr/bin/../include/c++/v1/string:666:0
	.cfi_startproc
## BB#0:
	pushq	%rbp
Ltmp192:
	.cfi_def_cfa_offset 16
Ltmp193:
	.cfi_offset %rbp, -16
	movq	%rsp, %rbp
Ltmp194:
	.cfi_def_cfa_register %rbp
	movl	$4294967295, %eax       ## imm = 0xFFFFFFFF
	.loc	7 666 10 prologue_end   ## /Applications/Xcode.app/Contents/Developer/Toolchains/XcodeDefault.xctoolchain/usr/bin/../include/c++/v1/string:666:10
Ltmp195:
	popq	%rbp
	retq
Ltmp196:
Lfunc_end9:
	.cfi_endproc

	.section	__TEXT,__cstring,cstring_literals
L_.str:                                 ## @.str
	.asciz	"n = "
